(lp1
Vant+hill_1.jpg
p2
aVant+hill_10.jpg
p3
aVant+hill_100.png
p4
aVant+hill_102.jpg
p5
aVant+hill_106.jpg
p6
aVant+hill_107.jpg
p7
aVant+hill_110.jpg
p8
aVant+hill_111.jpg
p9
aVant+hill_113.jpg
p10
aVant+hill_114.jpg
p11
aVant+hill_115.jpg
p12
aVant+hill_116.jpg
p13
aVant+hill_12.jpg
p14
aVant+hill_122.jpg
p15
aVant+hill_124.jpg
p16
aVant+hill_125.jpg
p17
aVant+hill_126.jpg
p18
aVant+hill_127.jpg
p19
aVant+hill_129.jpg
p20
aVant+hill_13.jpg
p21
aVant+hill_130.jpg
p22
aVant+hill_131.jpg
p23
aVant+hill_133.jpg
p24
aVant+hill_135.jpg
p25
aVant+hill_136.jpg
p26
aVant+hill_14.jpg
p27
aVant+hill_140.jpg
p28
aVant+hill_145.jpg
p29
aVant+hill_147.jpg
p30
aVant+hill_15.jpg
p31
aVant+hill_17.jpg
p32
aVant+hill_2.png
p33
aVant+hill_21.jpg
p34
aVant+hill_22.jpg
p35
aVant+hill_25.jpg
p36
aVant+hill_27.jpg
p37
aVant+hill_28.jpg
p38
aVant+hill_3.jpg
p39
aVant+hill_30.jpg
p40
aVant+hill_31.jpg
p41
aVant+hill_33.jpg
p42
aVant+hill_34.jpg
p43
aVant+hill_35.jpg
p44
aVant+hill_37.jpg
p45
aVant+hill_4.jpg
p46
aVant+hill_40.jpg
p47
aVant+hill_41.jpg
p48
aVant+hill_42.jpg
p49
aVant+hill_43.jpg
p50
aVant+hill_44.jpg
p51
aVant+hill_45.jpg
p52
aVant+hill_47.jpg
p53
aVant+hill_49.jpg
p54
aVant+hill_5.jpg
p55
aVant+hill_50.jpg
p56
aVant+hill_51.jpg
p57
aVant+hill_54.jpg
p58
aVant+hill_57.jpg
p59
aVant+hill_58.jpg
p60
aVant+hill_59.jpg
p61
aVant+hill_61.jpg
p62
aVant+hill_63.jpg
p63
aVant+hill_65.jpg
p64
aVant+hill_66.jpg
p65
aVant+hill_68.jpg
p66
aVant+hill_69.jpg
p67
aVant+hill_7.jpg
p68
aVant+hill_70.jpg
p69
aVant+hill_74.jpg
p70
aVant+hill_75.jpg
p71
aVant+hill_77.jpg
p72
aVant+hill_78.jpg
p73
aVant+hill_79.jpg
p74
aVant+hill_8.jpg
p75
aVant+hill_84.jpg
p76
aVant+hill_85.jpg
p77
aVant+hill_86.jpg
p78
aVant+hill_87.jpg
p79
aVant+hill_88.jpg
p80
aVant+hill_90.jpg
p81
aVant+hill_91.jpeg
p82
aVant+hill_94.jpg
p83
aVant+hill_95.jpg
p84
aVant+hill_97.png
p85
aVant+hill_98.jpg
p86
aVaquarium_0.jpg
p87
aVaquarium_1.jpg
p88
aVaquarium_10.jpeg
p89
aVaquarium_100.jpg
p90
aVaquarium_101.jpg
p91
aVaquarium_103.jpg
p92
aVaquarium_104.jpg
p93
aVaquarium_106.png
p94
aVaquarium_107.jpg
p95
aVaquarium_109.jpg
p96
aVaquarium_11.jpg
p97
aVaquarium_110.jpg
p98
aVaquarium_112.jpeg
p99
aVaquarium_113.jpg
p100
aVaquarium_114.jpg
p101
aVaquarium_115.jpg
p102
aVaquarium_116.jpg
p103
aVaquarium_12.jpg
p104
aVaquarium_120.jpg
p105
aVaquarium_121.jpg
p106
aVaquarium_122.jpg
p107
aVaquarium_123.jpg
p108
aVaquarium_127.jpg
p109
aVaquarium_128.jpg
p110
aVaquarium_129.jpg
p111
aVaquarium_13.jpg
p112
aVaquarium_130.jpg
p113
aVaquarium_131.jpg
p114
aVaquarium_132.jpg
p115
aVaquarium_133.jpg
p116
aVaquarium_135.png
p117
aVaquarium_139.jpg
p118
aVaquarium_14.jpg
p119
aVaquarium_140.jpeg
p120
aVaquarium_141.jpg
p121
aVaquarium_142.jpg
p122
aVaquarium_143.jpg
p123
aVaquarium_144.jpg
p124
aVaquarium_145.jpg
p125
aVaquarium_146.jpg
p126
aVaquarium_147.jpg
p127
aVaquarium_15.jpg
p128
aVaquarium_16.jpg
p129
aVaquarium_17.jpg
p130
aVaquarium_18.jpg
p131
aVaquarium_19.jpg
p132
aVaquarium_20.jpg
p133
aVaquarium_21.jpg
p134
aVaquarium_23.jpg
p135
aVaquarium_24.jpg
p136
aVaquarium_29.jpg
p137
aVaquarium_3.jpg
p138
aVaquarium_30.jpg
p139
aVaquarium_31.jpg
p140
aVaquarium_32.jpg
p141
aVaquarium_35.jpg
p142
aVaquarium_36.jpg
p143
aVaquarium_37.jpg
p144
aVaquarium_39.jpg
p145
aVaquarium_4.jpeg
p146
aVaquarium_40.jpg
p147
aVaquarium_42.jpg
p148
aVaquarium_43.jpg
p149
aVaquarium_44.jpg
p150
aVaquarium_46.jpg
p151
aVaquarium_48.jpg
p152
aVaquarium_49.jpg
p153
aVaquarium_5.jpg
p154
aVaquarium_50.jpg
p155
aVaquarium_51.jpg
p156
aVaquarium_52.jpg
p157
aVaquarium_53.jpg
p158
aVaquarium_55.jpg
p159
aVaquarium_56.jpg
p160
aVaquarium_57.jpg
p161
aVaquarium_60.jpg
p162
aVaquarium_61.jpg
p163
aVaquarium_62.jpg
p164
aVaquarium_63.jpg
p165
aVaquarium_64.jpg
p166
aVaquarium_65.jpg
p167
aVaquarium_66.jpg
p168
aVaquarium_67.jpg
p169
aVaquarium_68.jpg
p170
aVaquarium_69.jpg
p171
aVaquarium_7.jpg
p172
aVaquarium_71.jpg
p173
aVaquarium_72.jpg
p174
aVaquarium_73.jpg
p175
aVaquarium_74.jpg
p176
aVaquarium_76.jpg
p177
aVaquarium_77.jpg
p178
aVaquarium_8.jpg
p179
aVaquarium_80.jpg
p180
aVaquarium_81.jpg
p181
aVaquarium_82.jpg
p182
aVaquarium_83.jpg
p183
aVaquarium_84.jpg
p184
aVaquarium_85.jpg
p185
aVaquarium_87.jpg
p186
aVaquarium_89.jpg
p187
aVaquarium_90.jpg
p188
aVaquarium_91.jpg
p189
aVaquarium_92.jpg
p190
aVaquarium_93.jpg
p191
aVaquarium_94.jpg
p192
aVaquarium_97.jpg
p193
aVaquarium_98.jpg
p194
aVaquarium_99.jpg
p195
aVasphalt_1.jpg
p196
aVasphalt_10.jpg
p197
aVasphalt_101.jpg
p198
aVasphalt_102.jpg
p199
aVasphalt_104.jpg
p200
aVasphalt_105.jpg
p201
aVasphalt_106.jpg
p202
aVasphalt_108.jpg
p203
aVasphalt_110.jpg
p204
aVasphalt_111.jpg
p205
aVasphalt_113.jpg
p206
aVasphalt_114.jpg
p207
aVasphalt_116.jpg
p208
aVasphalt_117.jpg
p209
aVasphalt_118.jpg
p210
aVasphalt_119.jpg
p211
aVasphalt_12.jpg
p212
aVasphalt_120.jpg
p213
aVasphalt_122.jpg
p214
aVasphalt_126.jpg
p215
aVasphalt_132.jpg
p216
aVasphalt_134.jpg
p217
aVasphalt_136.jpg
p218
aVasphalt_137.jpg
p219
aVasphalt_14.jpg
p220
aVasphalt_140.png
p221
aVasphalt_143.jpg
p222
aVasphalt_145.jpg
p223
aVasphalt_148.jpg
p224
aVasphalt_149.jpg
p225
aVasphalt_15.jpg
p226
aVasphalt_17.jpg
p227
aVasphalt_18.jpg
p228
aVasphalt_2.jpg
p229
aVasphalt_20.jpg
p230
aVasphalt_21.jpg
p231
aVasphalt_22.jpg
p232
aVasphalt_23.jpg
p233
aVasphalt_24.jpg
p234
aVasphalt_25.jpg
p235
aVasphalt_26.jpg
p236
aVasphalt_28.jpg
p237
aVasphalt_30.jpg
p238
aVasphalt_31.jpg
p239
aVasphalt_34.jpg
p240
aVasphalt_36.jpg
p241
aVasphalt_37.jpg
p242
aVasphalt_38.jpg
p243
aVasphalt_39.jpg
p244
aVasphalt_4.jpg
p245
aVasphalt_40.jpg
p246
aVasphalt_41.jpg
p247
aVasphalt_42.jpg
p248
aVasphalt_44.jpg
p249
aVasphalt_46.jpg
p250
aVasphalt_47.jpg
p251
aVasphalt_49.jpg
p252
aVasphalt_5.jpg
p253
aVasphalt_50.jpg
p254
aVasphalt_52.jpg
p255
aVasphalt_53.jpg
p256
aVasphalt_55.jpg
p257
aVasphalt_56.jpg
p258
aVasphalt_57.jpg
p259
aVasphalt_58.jpg
p260
aVasphalt_6.jpg
p261
aVasphalt_60.jpg
p262
aVasphalt_66.jpg
p263
aVasphalt_68.jpg
p264
aVasphalt_69.jpg
p265
aVasphalt_7.jpg
p266
aVasphalt_71.jpg
p267
aVasphalt_72.jpg
p268
aVasphalt_73.jpg
p269
aVasphalt_74.jpg
p270
aVasphalt_76.jpg
p271
aVasphalt_78.jpg
p272
aVasphalt_79.jpg
p273
aVasphalt_8.jpg
p274
aVasphalt_81.jpg
p275
aVasphalt_82.jpg
p276
aVasphalt_84.jpg
p277
aVasphalt_88.jpg
p278
aVasphalt_89.jpg
p279
aVasphalt_9.jpg
p280
aVasphalt_92.jpg
p281
aVasphalt_94.jpg
p282
aVasphalt_95.jpg
p283
aVballet_0.jpg
p284
aVballet_10.jpg
p285
aVballet_102.jpg
p286
aVballet_104.jpg
p287
aVballet_105.jpg
p288
aVballet_106.jpg
p289
aVballet_107.jpg
p290
aVballet_108.jpg
p291
aVballet_11.jpg
p292
aVballet_110.jpg
p293
aVballet_112.jpg
p294
aVballet_115.jpg
p295
aVballet_117.jpg
p296
aVballet_12.jpg
p297
aVballet_122.jpg
p298
aVballet_123.jpg
p299
aVballet_124.jpg
p300
aVballet_128.jpg
p301
aVballet_130.jpg
p302
aVballet_131.jpg
p303
aVballet_133.jpg
p304
aVballet_136.jpg
p305
aVballet_138.jpg
p306
aVballet_139.jpg
p307
aVballet_14.jpg
p308
aVballet_142.jpg
p309
aVballet_144.jpg
p310
aVballet_146.jpg
p311
aVballet_147.jpg
p312
aVballet_149.jpg
p313
aVballet_16.jpg
p314
aVballet_19.jpg
p315
aVballet_21.jpg
p316
aVballet_24.jpg
p317
aVballet_25.jpg
p318
aVballet_26.jpg
p319
aVballet_28.jpg
p320
aVballet_3.jpg
p321
aVballet_30.jpg
p322
aVballet_32.jpg
p323
aVballet_34.jpg
p324
aVballet_35.jpg
p325
aVballet_37.jpg
p326
aVballet_38.jpg
p327
aVballet_40.jpg
p328
aVballet_41.jpg
p329
aVballet_42.jpg
p330
aVballet_48.jpg
p331
aVballet_51.jpg
p332
aVballet_53.jpg
p333
aVballet_54.jpg
p334
aVballet_56.jpg
p335
aVballet_57.jpg
p336
aVballet_58.jpg
p337
aVballet_59.jpg
p338
aVballet_60.jpg
p339
aVballet_62.jpg
p340
aVballet_64.png
p341
aVballet_67.jpg
p342
aVballet_69.jpg
p343
aVballet_70.jpg
p344
aVballet_72.jpg
p345
aVballet_75.jpg
p346
aVballet_76.jpg
p347
aVballet_78.jpg
p348
aVballet_8.jpg
p349
aVballet_80.jpg
p350
aVballet_82.jpg
p351
aVballet_83.jpg
p352
aVballet_85.jpg
p353
aVballet_86.png
p354
aVballet_89.jpg
p355
aVballet_9.jpg
p356
aVballet_91.jpg
p357
aVballet_96.jpg
p358
aVballet_99.jpg
p359
aVbaroque_0.jpg
p360
aVbaroque_1.jpg
p361
aVbaroque_100.jpg
p362
aVbaroque_102.jpg
p363
aVbaroque_104.jpg
p364
aVbaroque_108.jpg
p365
aVbaroque_111.jpg
p366
aVbaroque_114.jpg
p367
aVbaroque_115.jpg
p368
aVbaroque_12.jpg
p369
aVbaroque_124.jpg
p370
aVbaroque_128.jpg
p371
aVbaroque_134.jpg
p372
aVbaroque_137.jpg
p373
aVbaroque_139.jpg
p374
aVbaroque_14.jpg
p375
aVbaroque_140.jpg
p376
aVbaroque_142.jpg
p377
aVbaroque_145.png
p378
aVbaroque_146.jpg
p379
aVbaroque_147.jpg
p380
aVbaroque_16.jpg
p381
aVbaroque_17.jpg
p382
aVbaroque_18.jpg
p383
aVbaroque_19.jpg
p384
aVbaroque_20.jpg
p385
aVbaroque_24.jpg
p386
aVbaroque_25.jpg
p387
aVbaroque_27.jpg
p388
aVbaroque_3.jpg
p389
aVbaroque_30.jpg
p390
aVbaroque_31.png
p391
aVbaroque_34.jpg
p392
aVbaroque_35.jpg
p393
aVbaroque_40.jpg
p394
aVbaroque_44.jpg
p395
aVbaroque_48.jpg
p396
aVbaroque_51.jpg
p397
aVbaroque_52.jpg
p398
aVbaroque_56.jpg
p399
aVbaroque_6.jpg
p400
aVbaroque_60.jpg
p401
aVbaroque_62.jpg
p402
aVbaroque_63.jpg
p403
aVbaroque_64.jpg
p404
aVbaroque_65.jpg
p405
aVbaroque_66.png
p406
aVbaroque_67.jpg
p407
aVbaroque_70.jpg
p408
aVbaroque_75.jpg
p409
aVbaroque_78.jpg
p410
aVbaroque_8.jpg
p411
aVbaroque_80.jpg
p412
aVbaroque_81.jpg
p413
aVbaroque_86.jpg
p414
aVbaroque_88.jpeg
p415
aVbaroque_9.jpg
p416
aVbaroque_91.jpg
p417
aVbaroque_92.jpg
p418
aVbaroque_95.jpg
p419
aVbaroque_96.jpg
p420
aVbatman_10.jpg
p421
aVbatman_102.jpg
p422
aVbatman_106.jpg
p423
aVbatman_112.jpg
p424
aVbatman_114.jpg
p425
aVbatman_117.jpg
p426
aVbatman_12.jpg
p427
aVbatman_120.jpg
p428
aVbatman_122.png
p429
aVbatman_124.jpg
p430
aVbatman_125.jpg
p431
aVbatman_127.jpg
p432
aVbatman_128.jpg
p433
aVbatman_13.png
p434
aVbatman_130.jpg
p435
aVbatman_131.jpg
p436
aVbatman_132.jpg
p437
aVbatman_133.jpg
p438
aVbatman_136.png
p439
aVbatman_141.jpg
p440
aVbatman_143.jpg
p441
aVbatman_146.jpg
p442
aVbatman_147.png
p443
aVbatman_148.jpg
p444
aVbatman_15.jpg
p445
aVbatman_16.jpg
p446
aVbatman_2.jpg
p447
aVbatman_20.png
p448
aVbatman_22.jpg
p449
aVbatman_24.jpg
p450
aVbatman_28.jpg
p451
aVbatman_3.jpg
p452
aVbatman_31.jpg
p453
aVbatman_34.jpg
p454
aVbatman_35.jpg
p455
aVbatman_38.png
p456
aVbatman_4.png
p457
aVbatman_42.jpg
p458
aVbatman_48.jpg
p459
aVbatman_5.jpg
p460
aVbatman_50.jpg
p461
aVbatman_51.jpg
p462
aVbatman_52.jpeg
p463
aVbatman_53.jpg
p464
aVbatman_54.jpg
p465
aVbatman_60.jpg
p466
aVbatman_61.jpg
p467
aVbatman_63.jpg
p468
aVbatman_66.jpg
p469
aVbatman_72.jpg
p470
aVbatman_74.jpg
p471
aVbatman_77.jpg
p472
aVbatman_8.jpg
p473
aVbatman_80.jpg
p474
aVbatman_82.jpg
p475
aVbatman_85.jpg
p476
aVbatman_86.png
p477
aVbatman_88.jpg
p478
aVbatman_90.jpg
p479
aVbatman_93.jpg
p480
aVbay+area_0.jpg
p481
aVbay+area_1.jpg
p482
aVbay+area_104.jpg
p483
aVbay+area_106.jpg
p484
aVbay+area_107.jpg
p485
aVbay+area_108.jpg
p486
aVbay+area_11.jpg
p487
aVbay+area_110.jpg
p488
aVbay+area_112.jpg
p489
aVbay+area_114.jpg
p490
aVbay+area_118.jpg
p491
aVbay+area_12.jpg
p492
aVbay+area_122.jpg
p493
aVbay+area_123.jpg
p494
aVbay+area_125.jpg
p495
aVbay+area_126.jpg
p496
aVbay+area_127.jpg
p497
aVbay+area_13.jpg
p498
aVbay+area_130.jpg
p499
aVbay+area_131.png
p500
aVbay+area_133.jpg
p501
aVbay+area_135.jpg
p502
aVbay+area_137.jpg
p503
aVbay+area_14.jpg
p504
aVbay+area_140.jpg
p505
aVbay+area_142.jpg
p506
aVbay+area_144.png
p507
aVbay+area_145.jpg
p508
aVbay+area_146.jpg
p509
aVbay+area_147.jpg
p510
aVbay+area_16.jpg
p511
aVbay+area_17.jpg
p512
aVbay+area_18.jpg
p513
aVbay+area_19.jpg
p514
aVbay+area_2.jpg
p515
aVbay+area_20.jpg
p516
aVbay+area_21.jpg
p517
aVbay+area_22.jpg
p518
aVbay+area_23.jpg
p519
aVbay+area_24.jpg
p520
aVbay+area_25.jpg
p521
aVbay+area_26.jpg
p522
aVbay+area_27.jpg
p523
aVbay+area_28.jpg
p524
aVbay+area_29.jpg
p525
aVbay+area_3.jpg
p526
aVbay+area_31.jpg
p527
aVbay+area_32.jpg
p528
aVbay+area_33.jpg
p529
aVbay+area_36.jpg
p530
aVbay+area_37.png
p531
aVbay+area_38.jpg
p532
aVbay+area_40.jpg
p533
aVbay+area_42.jpg
p534
aVbay+area_43.jpg
p535
aVbay+area_44.jpg
p536
aVbay+area_45.jpg
p537
aVbay+area_46.jpg
p538
aVbay+area_5.jpg
p539
aVbay+area_54.jpg
p540
aVbay+area_55.jpg
p541
aVbay+area_56.jpg
p542
aVbay+area_58.jpg
p543
aVbay+area_6.png
p544
aVbay+area_61.jpg
p545
aVbay+area_63.jpg
p546
aVbay+area_64.jpg
p547
aVbay+area_66.jpg
p548
aVbay+area_67.jpg
p549
aVbay+area_68.png
p550
aVbay+area_69.jpg
p551
aVbay+area_70.jpg
p552
aVbay+area_71.jpg
p553
aVbay+area_72.jpg
p554
aVbay+area_73.jpg
p555
aVbay+area_74.jpg
p556
aVbay+area_75.png
p557
aVbay+area_76.jpg
p558
aVbay+area_8.jpg
p559
aVbay+area_82.jpg
p560
aVbay+area_84.jpg
p561
aVbay+area_88.jpg
p562
aVbay+area_9.png
p563
aVbay+area_90.jpg
p564
aVbay+area_91.jpg
p565
aVbay+area_92.jpg
p566
aVbay+area_93.jpg
p567
aVbay+area_95.jpg
p568
aVbay+area_96.jpg
p569
aVbay+area_97.jpg
p570
aVbay+area_98.jpg
p571
aVbay+area_99.jpg
p572
aVbedroom_1.jpg
p573
aVbedroom_10.jpg
p574
aVbedroom_102.jpg
p575
aVbedroom_103.jpg
p576
aVbedroom_104.jpg
p577
aVbedroom_105.jpg
p578
aVbedroom_106.jpg
p579
aVbedroom_107.jpg
p580
aVbedroom_11.jpg
p581
aVbedroom_110.jpg
p582
aVbedroom_111.jpg
p583
aVbedroom_112.jpg
p584
aVbedroom_113.jpg
p585
aVbedroom_114.jpg
p586
aVbedroom_115.jpg
p587
aVbedroom_117.jpg
p588
aVbedroom_118.jpeg
p589
aVbedroom_12.jpg
p590
aVbedroom_120.jpg
p591
aVbedroom_121.jpg
p592
aVbedroom_122.jpg
p593
aVbedroom_124.jpg
p594
aVbedroom_127.jpg
p595
aVbedroom_128.jpg
p596
aVbedroom_130.jpg
p597
aVbedroom_133.jpg
p598
aVbedroom_134.jpg
p599
aVbedroom_136.jpg
p600
aVbedroom_137.jpg
p601
aVbedroom_14.jpeg
p602
aVbedroom_140.jpg
p603
aVbedroom_141.jpg
p604
aVbedroom_142.jpg
p605
aVbedroom_144.jpg
p606
aVbedroom_149.jpg
p607
aVbedroom_15.jpeg
p608
aVbedroom_16.jpg
p609
aVbedroom_19.jpg
p610
aVbedroom_2.jpg
p611
aVbedroom_21.jpg
p612
aVbedroom_22.jpg
p613
aVbedroom_23.jpeg
p614
aVbedroom_24.jpeg
p615
aVbedroom_25.jpg
p616
aVbedroom_26.jpg
p617
aVbedroom_27.jpg
p618
aVbedroom_28.jpg
p619
aVbedroom_3.jpg
p620
aVbedroom_30.jpg
p621
aVbedroom_31.jpg
p622
aVbedroom_33.jpg
p623
aVbedroom_34.jpg
p624
aVbedroom_35.jpg
p625
aVbedroom_37.jpg
p626
aVbedroom_39.jpg
p627
aVbedroom_41.jpeg
p628
aVbedroom_43.jpg
p629
aVbedroom_44.jpg
p630
aVbedroom_45.jpg
p631
aVbedroom_47.jpeg
p632
aVbedroom_48.jpg
p633
aVbedroom_49.jpg
p634
aVbedroom_50.jpg
p635
aVbedroom_51.jpg
p636
aVbedroom_53.jpg
p637
aVbedroom_54.jpg
p638
aVbedroom_55.jpg
p639
aVbedroom_56.jpg
p640
aVbedroom_57.jpg
p641
aVbedroom_59.jpg
p642
aVbedroom_60.jpg
p643
aVbedroom_63.jpg
p644
aVbedroom_64.jpg
p645
aVbedroom_65.jpg
p646
aVbedroom_66.jpg
p647
aVbedroom_67.jpg
p648
aVbedroom_7.jpg
p649
aVbedroom_70.jpg
p650
aVbedroom_72.jpg
p651
aVbedroom_73.jpg
p652
aVbedroom_74.jpg
p653
aVbedroom_76.jpg
p654
aVbedroom_77.jpg
p655
aVbedroom_78.jpg
p656
aVbedroom_79.jpg
p657
aVbedroom_8.jpg
p658
aVbedroom_80.jpg
p659
aVbedroom_82.jpg
p660
aVbedroom_83.jpg
p661
aVbedroom_85.jpg
p662
aVbedroom_86.jpg
p663
aVbedroom_88.jpg
p664
aVbedroom_89.jpg
p665
aVbedroom_90.jpg
p666
aVbedroom_91.jpg
p667
aVbedroom_92.jpg
p668
aVbedroom_93.jpg
p669
aVbedroom_94.jpg
p670
aVbedroom_97.jpg
p671
aVbedroom_99.jpg
p672
aVberkeley_0.jpg
p673
aVberkeley_1.jpg
p674
aVberkeley_10.jpg
p675
aVberkeley_100.jpg
p676
aVberkeley_103.jpg
p677
aVberkeley_104.jpg
p678
aVberkeley_105.jpeg
p679
aVberkeley_106.jpeg
p680
aVberkeley_108.jpg
p681
aVberkeley_110.jpg
p682
aVberkeley_112.jpeg
p683
aVberkeley_113.jpg
p684
aVberkeley_115.jpg
p685
aVberkeley_116.jpg
p686
aVberkeley_118.jpg
p687
aVberkeley_120.jpg
p688
aVberkeley_121.jpg
p689
aVberkeley_122.jpg
p690
aVberkeley_126.jpg
p691
aVberkeley_131.jpg
p692
aVberkeley_136.jpg
p693
aVberkeley_137.jpg
p694
aVberkeley_138.jpg
p695
aVberkeley_14.jpg
p696
aVberkeley_140.jpg
p697
aVberkeley_144.jpg
p698
aVberkeley_148.jpg
p699
aVberkeley_17.png
p700
aVberkeley_19.jpg
p701
aVberkeley_20.jpg
p702
aVberkeley_22.jpg
p703
aVberkeley_23.jpg
p704
aVberkeley_24.jpg
p705
aVberkeley_25.jpg
p706
aVberkeley_26.jpg
p707
aVberkeley_28.jpeg
p708
aVberkeley_3.jpg
p709
aVberkeley_30.jpg
p710
aVberkeley_33.jpg
p711
aVberkeley_38.jpg
p712
aVberkeley_39.jpg
p713
aVberkeley_4.jpg
p714
aVberkeley_40.jpg
p715
aVberkeley_44.jpg
p716
aVberkeley_46.jpg
p717
aVberkeley_49.jpg
p718
aVberkeley_51.jpg
p719
aVberkeley_52.jpg
p720
aVberkeley_54.jpg
p721
aVberkeley_55.jpg
p722
aVberkeley_56.jpg
p723
aVberkeley_6.jpg
p724
aVberkeley_60.jpg
p725
aVberkeley_62.jpg
p726
aVberkeley_64.jpg
p727
aVberkeley_70.jpeg
p728
aVberkeley_74.jpg
p729
aVberkeley_76.jpg
p730
aVberkeley_78.jpeg
p731
aVberkeley_8.jpg
p732
aVberkeley_80.jpg
p733
aVberkeley_84.jpg
p734
aVberkeley_86.jpg
p735
aVberkeley_87.jpg
p736
aVberkeley_88.jpg
p737
aVberkeley_9.jpg
p738
aVberkeley_90.jpg
p739
aVberkeley_94.jpg
p740
aVberkeley_96.jpg
p741
aVberkeley_97.jpg
p742
aVberkeley_99.jpg
p743
aVbirds_1.jpg
p744
aVbirds_10.jpg
p745
aVbirds_105.jpg
p746
aVbirds_106.jpg
p747
aVbirds_108.jpg
p748
aVbirds_110.jpg
p749
aVbirds_113.jpg
p750
aVbirds_114.jpg
p751
aVbirds_116.jpg
p752
aVbirds_118.jpg
p753
aVbirds_12.jpg
p754
aVbirds_121.jpg
p755
aVbirds_124.jpg
p756
aVbirds_125.jpg
p757
aVbirds_126.jpeg
p758
aVbirds_127.jpg
p759
aVbirds_128.jpg
p760
aVbirds_13.jpg
p761
aVbirds_130.jpg
p762
aVbirds_134.jpg
p763
aVbirds_135.jpg
p764
aVbirds_138.jpg
p765
aVbirds_140.jpg
p766
aVbirds_142.jpg
p767
aVbirds_144.jpg
p768
aVbirds_145.jpg
p769
aVbirds_146.jpg
p770
aVbirds_148.jpg
p771
aVbirds_15.jpg
p772
aVbirds_17.jpg
p773
aVbirds_18.jpg
p774
aVbirds_2.jpg
p775
aVbirds_20.jpg
p776
aVbirds_22.jpg
p777
aVbirds_23.jpg
p778
aVbirds_25.jpg
p779
aVbirds_26.jpg
p780
aVbirds_28.jpg
p781
aVbirds_30.jpg
p782
aVbirds_32.jpg
p783
aVbirds_36.jpg
p784
aVbirds_41.jpg
p785
aVbirds_48.jpg
p786
aVbirds_49.jpg
p787
aVbirds_50.jpg
p788
aVbirds_54.jpg
p789
aVbirds_55.jpg
p790
aVbirds_57.jpg
p791
aVbirds_6.jpg
p792
aVbirds_61.jpg
p793
aVbirds_62.jpg
p794
aVbirds_66.jpg
p795
aVbirds_73.jpg
p796
aVbirds_74.jpg
p797
aVbirds_76.jpg
p798
aVbirds_77.jpg
p799
aVbirds_78.jpg
p800
aVbirds_79.jpg
p801
aVbirds_80.jpg
p802
aVbirds_81.jpg
p803
aVbirds_87.jpg
p804
aVbirds_89.jpg
p805
aVbirds_9.jpg
p806
aVbirds_90.jpg
p807
aVbirds_93.jpg
p808
aVbirds_94.jpg
p809
aVbirds_95.jpg
p810
aVbirds_96.jpg
p811
aVbirds_97.jpg
p812
aVbirds_98.jpg
p813
aVbob+dylan_0.jpg
p814
aVbob+dylan_1.jpg
p815
aVbob+dylan_10.jpg
p816
aVbob+dylan_100.png
p817
aVbob+dylan_101.jpg
p818
aVbob+dylan_103.jpg
p819
aVbob+dylan_104.jpg
p820
aVbob+dylan_105.jpg
p821
aVbob+dylan_106.jpg
p822
aVbob+dylan_108.jpg
p823
aVbob+dylan_11.jpg
p824
aVbob+dylan_110.jpg
p825
aVbob+dylan_111.jpg
p826
aVbob+dylan_112.jpg
p827
aVbob+dylan_113.jpg
p828
aVbob+dylan_114.jpg
p829
aVbob+dylan_115.jpg
p830
aVbob+dylan_117.jpg
p831
aVbob+dylan_12.jpg
p832
aVbob+dylan_120.jpg
p833
aVbob+dylan_121.jpg
p834
aVbob+dylan_122.jpg
p835
aVbob+dylan_123.jpg
p836
aVbob+dylan_124.jpg
p837
aVbob+dylan_125.jpg
p838
aVbob+dylan_126.jpg
p839
aVbob+dylan_127.jpg
p840
aVbob+dylan_13.jpg
p841
aVbob+dylan_130.jpg
p842
aVbob+dylan_132.jpg
p843
aVbob+dylan_135.jpg
p844
aVbob+dylan_136.jpg
p845
aVbob+dylan_137.jpg
p846
aVbob+dylan_139.jpg
p847
aVbob+dylan_14.jpg
p848
aVbob+dylan_140.png
p849
aVbob+dylan_142.jpg
p850
aVbob+dylan_143.jpg
p851
aVbob+dylan_145.jpg
p852
aVbob+dylan_146.jpg
p853
aVbob+dylan_147.png
p854
aVbob+dylan_15.jpg
p855
aVbob+dylan_16.jpg
p856
aVbob+dylan_18.jpg
p857
aVbob+dylan_19.jpg
p858
aVbob+dylan_2.jpg
p859
aVbob+dylan_20.jpg
p860
aVbob+dylan_21.jpg
p861
aVbob+dylan_23.jpg
p862
aVbob+dylan_24.jpg
p863
aVbob+dylan_25.jpg
p864
aVbob+dylan_29.jpg
p865
aVbob+dylan_3.jpg
p866
aVbob+dylan_30.jpg
p867
aVbob+dylan_31.jpg
p868
aVbob+dylan_33.jpg
p869
aVbob+dylan_35.jpg
p870
aVbob+dylan_36.jpg
p871
aVbob+dylan_39.jpg
p872
aVbob+dylan_4.jpg
p873
aVbob+dylan_40.jpg
p874
aVbob+dylan_43.jpg
p875
aVbob+dylan_44.jpg
p876
aVbob+dylan_46.jpg
p877
aVbob+dylan_47.jpeg
p878
aVbob+dylan_48.jpg
p879
aVbob+dylan_49.jpg
p880
aVbob+dylan_5.jpg
p881
aVbob+dylan_51.jpg
p882
aVbob+dylan_52.jpg
p883
aVbob+dylan_56.jpg
p884
aVbob+dylan_57.jpg
p885
aVbob+dylan_58.jpg
p886
aVbob+dylan_59.jpg
p887
aVbob+dylan_60.jpg
p888
aVbob+dylan_62.jpeg
p889
aVbob+dylan_63.jpg
p890
aVbob+dylan_64.jpg
p891
aVbob+dylan_65.jpg
p892
aVbob+dylan_66.jpg
p893
aVbob+dylan_67.jpg
p894
aVbob+dylan_68.jpg
p895
aVbob+dylan_69.jpg
p896
aVbob+dylan_7.jpg
p897
aVbob+dylan_71.jpg
p898
aVbob+dylan_73.jpg
p899
aVbob+dylan_76.jpg
p900
aVbob+dylan_77.jpg
p901
aVbob+dylan_79.jpg
p902
aVbob+dylan_8.jpg
p903
aVbob+dylan_80.jpg
p904
aVbob+dylan_81.jpg
p905
aVbob+dylan_83.jpg
p906
aVbob+dylan_85.jpg
p907
aVbob+dylan_87.jpg
p908
aVbob+dylan_89.jpg
p909
aVbob+dylan_9.jpg
p910
aVbob+dylan_90.jpg
p911
aVbob+dylan_91.jpg
p912
aVbob+dylan_92.jpeg
p913
aVbob+dylan_93.jpg
p914
aVbob+dylan_99.jpg
p915
aVbuilding_10.jpg
p916
aVbuilding_100.jpg
p917
aVbuilding_101.jpg
p918
aVbuilding_102.jpg
p919
aVbuilding_104.jpg
p920
aVbuilding_108.jpg
p921
aVbuilding_109.jpg
p922
aVbuilding_111.jpg
p923
aVbuilding_112.jpg
p924
aVbuilding_114.jpg
p925
aVbuilding_115.jpg
p926
aVbuilding_118.png
p927
aVbuilding_120.jpg
p928
aVbuilding_122.jpg
p929
aVbuilding_124.jpg
p930
aVbuilding_125.jpg
p931
aVbuilding_127.jpg
p932
aVbuilding_128.jpg
p933
aVbuilding_130.jpg
p934
aVbuilding_133.jpg
p935
aVbuilding_134.jpg
p936
aVbuilding_138.jpg
p937
aVbuilding_141.jpg
p938
aVbuilding_143.jpg
p939
aVbuilding_144.jpg
p940
aVbuilding_146.jpg
p941
aVbuilding_147.jpg
p942
aVbuilding_15.jpg
p943
aVbuilding_16.jpg
p944
aVbuilding_18.jpg
p945
aVbuilding_19.jpg
p946
aVbuilding_21.jpg
p947
aVbuilding_24.png
p948
aVbuilding_26.jpg
p949
aVbuilding_28.jpg
p950
aVbuilding_29.jpg
p951
aVbuilding_3.jpg
p952
aVbuilding_31.jpeg
p953
aVbuilding_34.jpg
p954
aVbuilding_36.jpg
p955
aVbuilding_37.jpg
p956
aVbuilding_38.jpg
p957
aVbuilding_45.jpg
p958
aVbuilding_48.jpg
p959
aVbuilding_5.jpg
p960
aVbuilding_50.jpg
p961
aVbuilding_51.jpg
p962
aVbuilding_60.jpg
p963
aVbuilding_66.jpg
p964
aVbuilding_68.jpg
p965
aVbuilding_69.jpg
p966
aVbuilding_70.jpg
p967
aVbuilding_74.jpg
p968
aVbuilding_76.jpg
p969
aVbuilding_77.jpg
p970
aVbuilding_79.jpg
p971
aVbuilding_82.jpg
p972
aVbuilding_83.jpg
p973
aVbuilding_85.jpg
p974
aVbuilding_90.jpg
p975
aVbuilding_92.jpg
p976
aVbuilding_95.jpg
p977
aVbuilding_96.jpg
p978
aVbuilding_98.jpg
p979
aVbuilding_99.jpg
p980
aVcambridge_0.jpg
p981
aVcambridge_10.jpg
p982
aVcambridge_101.jpg
p983
aVcambridge_102.jpg
p984
aVcambridge_104.jpg
p985
aVcambridge_108.jpg
p986
aVcambridge_112.jpg
p987
aVcambridge_114.jpg
p988
aVcambridge_116.jpg
p989
aVcambridge_12.jpg
p990
aVcambridge_120.jpg
p991
aVcambridge_124.jpg
p992
aVcambridge_125.jpg
p993
aVcambridge_127.jpg
p994
aVcambridge_128.jpg
p995
aVcambridge_13.jpg
p996
aVcambridge_130.jpg
p997
aVcambridge_133.jpg
p998
aVcambridge_136.jpg
p999
aVcambridge_140.jpg
p1000
aVcambridge_141.jpg
p1001
aVcambridge_143.jpg
p1002
aVcambridge_144.jpg
p1003
aVcambridge_147.jpg
p1004
aVcambridge_148.jpg
p1005
aVcambridge_149.jpg
p1006
aVcambridge_18.jpg
p1007
aVcambridge_2.jpg
p1008
aVcambridge_20.jpg
p1009
aVcambridge_21.jpg
p1010
aVcambridge_22.jpg
p1011
aVcambridge_24.jpg
p1012
aVcambridge_26.jpg
p1013
aVcambridge_28.jpg
p1014
aVcambridge_29.jpg
p1015
aVcambridge_3.jpg
p1016
aVcambridge_32.jpg
p1017
aVcambridge_34.jpg
p1018
aVcambridge_35.jpg
p1019
aVcambridge_36.jpg
p1020
aVcambridge_37.jpg
p1021
aVcambridge_40.png
p1022
aVcambridge_47.jpg
p1023
aVcambridge_48.jpeg
p1024
aVcambridge_56.jpg
p1025
aVcambridge_6.jpg
p1026
aVcambridge_60.jpg
p1027
aVcambridge_61.jpg
p1028
aVcambridge_63.jpg
p1029
aVcambridge_64.jpg
p1030
aVcambridge_68.jpg
p1031
aVcambridge_69.jpg
p1032
aVcambridge_70.jpg
p1033
aVcambridge_76.jpg
p1034
aVcambridge_77.jpg
p1035
aVcambridge_79.jpg
p1036
aVcambridge_80.jpg
p1037
aVcambridge_82.jpg
p1038
aVcambridge_84.jpg
p1039
aVcambridge_85.jpg
p1040
aVcambridge_92.jpg
p1041
aVcambridge_93.jpg
p1042
aVcambridge_96.jpg
p1043
aVcambridge_98.jpg
p1044
aVcambridge_99.jpg
p1045
aVcamping_1.jpg
p1046
aVcamping_10.jpg
p1047
aVcamping_101.jpg
p1048
aVcamping_102.jpg
p1049
aVcamping_103.jpg
p1050
aVcamping_106.jpg
p1051
aVcamping_108.jpg
p1052
aVcamping_111.jpeg
p1053
aVcamping_113.jpg
p1054
aVcamping_116.jpg
p1055
aVcamping_117.jpg
p1056
aVcamping_119.jpg
p1057
aVcamping_12.jpg
p1058
aVcamping_120.jpg
p1059
aVcamping_124.jpg
p1060
aVcamping_126.jpg
p1061
aVcamping_127.jpg
p1062
aVcamping_130.jpg
p1063
aVcamping_132.jpg
p1064
aVcamping_133.jpg
p1065
aVcamping_134.jpg
p1066
aVcamping_138.jpg
p1067
aVcamping_14.jpg
p1068
aVcamping_142.jpg
p1069
aVcamping_145.jpg
p1070
aVcamping_146.jpg
p1071
aVcamping_148.jpg
p1072
aVcamping_149.jpg
p1073
aVcamping_15.jpg
p1074
aVcamping_17.jpg
p1075
aVcamping_18.jpg
p1076
aVcamping_2.jpg
p1077
aVcamping_20.jpg
p1078
aVcamping_21.jpg
p1079
aVcamping_23.jpg
p1080
aVcamping_26.jpg
p1081
aVcamping_28.jpg
p1082
aVcamping_30.jpg
p1083
aVcamping_31.jpg
p1084
aVcamping_33.jpg
p1085
aVcamping_34.jpg
p1086
aVcamping_37.jpg
p1087
aVcamping_39.jpg
p1088
aVcamping_4.jpg
p1089
aVcamping_42.jpg
p1090
aVcamping_44.jpg
p1091
aVcamping_46.jpg
p1092
aVcamping_47.jpg
p1093
aVcamping_49.jpg
p1094
aVcamping_5.jpg
p1095
aVcamping_50.jpg
p1096
aVcamping_52.jpg
p1097
aVcamping_54.jpg
p1098
aVcamping_55.jpg
p1099
aVcamping_58.jpg
p1100
aVcamping_6.jpg
p1101
aVcamping_65.jpg
p1102
aVcamping_68.jpg
p1103
aVcamping_69.jpg
p1104
aVcamping_7.jpg
p1105
aVcamping_71.jpg
p1106
aVcamping_72.jpg
p1107
aVcamping_76.jpg
p1108
aVcamping_79.jpg
p1109
aVcamping_82.jpg
p1110
aVcamping_84.jpg
p1111
aVcamping_85.jpg
p1112
aVcamping_88.jpg
p1113
aVcamping_90.jpg
p1114
aVcamping_92.jpg
p1115
aVcamping_94.jpg
p1116
aVcamping_97.jpg
p1117
aVcamping_98.jpg
p1118
aVchocolate_1.jpg
p1119
aVchocolate_10.jpg
p1120
aVchocolate_100.jpg
p1121
aVchocolate_106.jpg
p1122
aVchocolate_107.jpg
p1123
aVchocolate_11.jpg
p1124
aVchocolate_113.jpg
p1125
aVchocolate_114.jpg
p1126
aVchocolate_115.jpg
p1127
aVchocolate_116.jpg
p1128
aVchocolate_118.jpg
p1129
aVchocolate_120.jpg
p1130
aVchocolate_122.jpg
p1131
aVchocolate_125.jpg
p1132
aVchocolate_126.jpg
p1133
aVchocolate_13.jpg
p1134
aVchocolate_130.jpg
p1135
aVchocolate_131.jpg
p1136
aVchocolate_134.jpg
p1137
aVchocolate_136.jpg
p1138
aVchocolate_138.jpg
p1139
aVchocolate_14.jpg
p1140
aVchocolate_141.jpg
p1141
aVchocolate_142.jpg
p1142
aVchocolate_144.jpg
p1143
aVchocolate_145.jpg
p1144
aVchocolate_147.jpg
p1145
aVchocolate_148.jpg
p1146
aVchocolate_17.png
p1147
aVchocolate_19.png
p1148
aVchocolate_2.jpg
p1149
aVchocolate_24.jpg
p1150
aVchocolate_26.jpg
p1151
aVchocolate_29.jpg
p1152
aVchocolate_30.jpg
p1153
aVchocolate_32.jpg
p1154
aVchocolate_33.jpg
p1155
aVchocolate_35.jpg
p1156
aVchocolate_36.jpg
p1157
aVchocolate_4.jpg
p1158
aVchocolate_40.jpg
p1159
aVchocolate_45.jpg
p1160
aVchocolate_46.png
p1161
aVchocolate_49.jpg
p1162
aVchocolate_54.jpg
p1163
aVchocolate_56.jpg
p1164
aVchocolate_58.jpg
p1165
aVchocolate_59.jpg
p1166
aVchocolate_6.png
p1167
aVchocolate_61.jpg
p1168
aVchocolate_62.jpg
p1169
aVchocolate_64.jpg
p1170
aVchocolate_67.jpg
p1171
aVchocolate_72.jpg
p1172
aVchocolate_74.jpg
p1173
aVchocolate_75.jpg
p1174
aVchocolate_77.jpg
p1175
aVchocolate_78.jpg
p1176
aVchocolate_8.jpg
p1177
aVchocolate_80.jpg
p1178
aVchocolate_81.jpg
p1179
aVchocolate_84.jpg
p1180
aVchocolate_86.jpg
p1181
aVchocolate_88.jpg
p1182
aVchocolate_90.jpg
p1183
aVchocolate_91.jpg
p1184
aVchocolate_94.jpg
p1185
aVchocolate_96.jpg
p1186
aVchocolate_98.jpg
p1187
aVchocolate_99.jpg
p1188
aVcity+skyline_0.jpg
p1189
aVcity+skyline_10.jpg
p1190
aVcity+skyline_106.jpg
p1191
aVcity+skyline_111.jpg
p1192
aVcity+skyline_114.jpg
p1193
aVcity+skyline_119.jpg
p1194
aVcity+skyline_121.jpg
p1195
aVcity+skyline_122.jpeg
p1196
aVcity+skyline_124.jpg
p1197
aVcity+skyline_125.jpg
p1198
aVcity+skyline_126.jpg
p1199
aVcity+skyline_128.jpg
p1200
aVcity+skyline_13.jpg
p1201
aVcity+skyline_130.jpg
p1202
aVcity+skyline_134.jpg
p1203
aVcity+skyline_135.jpg
p1204
aVcity+skyline_137.jpg
p1205
aVcity+skyline_14.jpg
p1206
aVcity+skyline_140.jpg
p1207
aVcity+skyline_141.jpg
p1208
aVcity+skyline_142.jpg
p1209
aVcity+skyline_144.png
p1210
aVcity+skyline_146.jpg
p1211
aVcity+skyline_15.jpg
p1212
aVcity+skyline_18.jpg
p1213
aVcity+skyline_20.jpg
p1214
aVcity+skyline_22.jpg
p1215
aVcity+skyline_23.jpg
p1216
aVcity+skyline_25.jpg
p1217
aVcity+skyline_26.jpg
p1218
aVcity+skyline_28.jpg
p1219
aVcity+skyline_29.jpg
p1220
aVcity+skyline_30.jpg
p1221
aVcity+skyline_31.jpg
p1222
aVcity+skyline_32.jpg
p1223
aVcity+skyline_34.jpg
p1224
aVcity+skyline_36.jpg
p1225
aVcity+skyline_38.jpg
p1226
aVcity+skyline_39.jpg
p1227
aVcity+skyline_4.jpg
p1228
aVcity+skyline_41.jpg
p1229
aVcity+skyline_42.jpg
p1230
aVcity+skyline_44.jpg
p1231
aVcity+skyline_45.jpg
p1232
aVcity+skyline_46.jpg
p1233
aVcity+skyline_47.jpg
p1234
aVcity+skyline_50.png
p1235
aVcity+skyline_52.jpg
p1236
aVcity+skyline_54.jpg
p1237
aVcity+skyline_55.jpg
p1238
aVcity+skyline_57.jpg
p1239
aVcity+skyline_6.jpg
p1240
aVcity+skyline_60.jpg
p1241
aVcity+skyline_64.jpg
p1242
aVcity+skyline_66.jpg
p1243
aVcity+skyline_68.png
p1244
aVcity+skyline_70.jpg
p1245
aVcity+skyline_71.jpg
p1246
aVcity+skyline_73.jpg
p1247
aVcity+skyline_76.jpg
p1248
aVcity+skyline_78.jpg
p1249
aVcity+skyline_79.jpg
p1250
aVcity+skyline_89.jpg
p1251
aVcity+skyline_9.jpg
p1252
aVcity+skyline_93.jpg
p1253
aVcity+skyline_94.jpg
p1254
aVcity+skyline_96.jpg
p1255
aVcity_0.jpg
p1256
aVcity_1.jpg
p1257
aVcity_10.jpg
p1258
aVcity_100.jpg
p1259
aVcity_104.jpg
p1260
aVcity_105.jpg
p1261
aVcity_108.jpg
p1262
aVcity_112.png
p1263
aVcity_113.jpg
p1264
aVcity_118.jpg
p1265
aVcity_119.jpg
p1266
aVcity_12.jpeg
p1267
aVcity_121.jpg
p1268
aVcity_122.jpg
p1269
aVcity_124.jpg
p1270
aVcity_128.jpg
p1271
aVcity_129.jpg
p1272
aVcity_132.jpg
p1273
aVcity_134.jpg
p1274
aVcity_136.jpg
p1275
aVcity_137.jpg
p1276
aVcity_14.jpg
p1277
aVcity_142.jpg
p1278
aVcity_144.jpg
p1279
aVcity_145.jpg
p1280
aVcity_16.jpg
p1281
aVcity_17.jpg
p1282
aVcity_19.jpg
p1283
aVcity_22.jpg
p1284
aVcity_23.jpg
p1285
aVcity_26.jpg
p1286
aVcity_28.jpg
p1287
aVcity_3.jpg
p1288
aVcity_35.jpg
p1289
aVcity_40.jpg
p1290
aVcity_41.jpg
p1291
aVcity_42.jpg
p1292
aVcity_46.jpg
p1293
aVcity_48.jpg
p1294
aVcity_52.jpg
p1295
aVcity_54.jpg
p1296
aVcity_55.jpg
p1297
aVcity_56.png
p1298
aVcity_57.jpg
p1299
aVcity_58.jpg
p1300
aVcity_6.jpg
p1301
aVcity_60.jpg
p1302
aVcity_65.jpg
p1303
aVcity_7.jpg
p1304
aVcity_70.jpg
p1305
aVcity_71.jpg
p1306
aVcity_72.jpg
p1307
aVcity_73.jpg
p1308
aVcity_74.jpg
p1309
aVcity_76.jpg
p1310
aVcity_78.jpg
p1311
aVcity_8.jpg
p1312
aVcity_80.jpg
p1313
aVcity_83.jpg
p1314
aVcity_89.jpg
p1315
aVcity_9.jpg
p1316
aVcity_96.jpg
p1317
aVcity_97.jpg
p1318
aVcity_99.jpg
p1319
aVclothes_0.jpg
p1320
aVclothes_10.png
p1321
aVclothes_100.jpg
p1322
aVclothes_102.jpg
p1323
aVclothes_105.jpg
p1324
aVclothes_109.jpg
p1325
aVclothes_110.jpg
p1326
aVclothes_111.jpg
p1327
aVclothes_114.jpg
p1328
aVclothes_116.jpg
p1329
aVclothes_118.jpg
p1330
aVclothes_119.jpg
p1331
aVclothes_12.jpg
p1332
aVclothes_124.jpg
p1333
aVclothes_125.jpg
p1334
aVclothes_130.jpg
p1335
aVclothes_134.jpg
p1336
aVclothes_135.jpg
p1337
aVclothes_137.jpg
p1338
aVclothes_138.jpg
p1339
aVclothes_142.jpg
p1340
aVclothes_144.jpg
p1341
aVclothes_146.jpg
p1342
aVclothes_148.jpg
p1343
aVclothes_15.jpg
p1344
aVclothes_16.jpg
p1345
aVclothes_18.jpg
p1346
aVclothes_2.jpg
p1347
aVclothes_20.jpg
p1348
aVclothes_23.jpg
p1349
aVclothes_25.jpg
p1350
aVclothes_28.jpg
p1351
aVclothes_29.jpg
p1352
aVclothes_30.jpg
p1353
aVclothes_32.jpg
p1354
aVclothes_38.jpg
p1355
aVclothes_39.jpg
p1356
aVclothes_4.jpg
p1357
aVclothes_41.jpg
p1358
aVclothes_42.jpg
p1359
aVclothes_46.jpg
p1360
aVclothes_47.jpg
p1361
aVclothes_48.jpg
p1362
aVclothes_57.jpg
p1363
aVclothes_60.jpg
p1364
aVclothes_63.jpg
p1365
aVclothes_64.jpg
p1366
aVclothes_7.png
p1367
aVclothes_71.jpg
p1368
aVclothes_77.jpg
p1369
aVclothes_82.jpg
p1370
aVclothes_84.jpg
p1371
aVclothes_86.jpg
p1372
aVclothes_87.jpg
p1373
aVclothes_89.jpg
p1374
aVclothes_90.jpg
p1375
aVclothes_92.jpg
p1376
aVclothes_94.jpg
p1377
aVclothes_96.jpg
p1378
aVclothes_98.jpg
p1379
aVclouds_0.jpg
p1380
aVclouds_10.jpg
p1381
aVclouds_100.jpg
p1382
aVclouds_102.jpg
p1383
aVclouds_103.jpg
p1384
aVclouds_106.jpg
p1385
aVclouds_109.jpg
p1386
aVclouds_112.jpg
p1387
aVclouds_114.jpg
p1388
aVclouds_116.jpg
p1389
aVclouds_118.png
p1390
aVclouds_119.jpg
p1391
aVclouds_12.jpg
p1392
aVclouds_124.jpg
p1393
aVclouds_125.jpg
p1394
aVclouds_126.jpg
p1395
aVclouds_127.jpg
p1396
aVclouds_128.jpg
p1397
aVclouds_13.jpg
p1398
aVclouds_130.jpg
p1399
aVclouds_134.jpg
p1400
aVclouds_135.jpg
p1401
aVclouds_137.jpg
p1402
aVclouds_138.jpg
p1403
aVclouds_14.jpg
p1404
aVclouds_140.jpg
p1405
aVclouds_144.jpg
p1406
aVclouds_148.jpg
p1407
aVclouds_15.jpg
p1408
aVclouds_16.jpg
p1409
aVclouds_18.jpg
p1410
aVclouds_20.png
p1411
aVclouds_22.jpg
p1412
aVclouds_26.jpg
p1413
aVclouds_29.jpg
p1414
aVclouds_30.jpg
p1415
aVclouds_31.jpg
p1416
aVclouds_32.jpg
p1417
aVclouds_34.jpg
p1418
aVclouds_36.jpg
p1419
aVclouds_4.jpg
p1420
aVclouds_41.jpg
p1421
aVclouds_42.jpg
p1422
aVclouds_44.jpg
p1423
aVclouds_46.png
p1424
aVclouds_48.jpg
p1425
aVclouds_50.jpg
p1426
aVclouds_54.jpg
p1427
aVclouds_55.jpg
p1428
aVclouds_57.jpg
p1429
aVclouds_58.jpg
p1430
aVclouds_6.jpg
p1431
aVclouds_60.jpg
p1432
aVclouds_61.jpg
p1433
aVclouds_63.jpg
p1434
aVclouds_64.jpg
p1435
aVclouds_66.jpg
p1436
aVclouds_68.png
p1437
aVclouds_7.jpg
p1438
aVclouds_74.jpg
p1439
aVclouds_76.jpg
p1440
aVclouds_78.jpg
p1441
aVclouds_80.png
p1442
aVclouds_82.jpg
p1443
aVclouds_84.jpg
p1444
aVclouds_86.jpg
p1445
aVclouds_87.jpg
p1446
aVclouds_89.jpg
p1447
aVclouds_98.jpg
p1448
aVcoal_0.jpg
p1449
aVcoal_10.jpg
p1450
aVcoal_102.jpg
p1451
aVcoal_103.jpg
p1452
aVcoal_104.jpg
p1453
aVcoal_106.jpg
p1454
aVcoal_107.jpg
p1455
aVcoal_108.jpg
p1456
aVcoal_11.jpg
p1457
aVcoal_110.jpg
p1458
aVcoal_112.jpg
p1459
aVcoal_115.jpg
p1460
aVcoal_12.jpg
p1461
aVcoal_121.jpg
p1462
aVcoal_122.jpg
p1463
aVcoal_126.jpg
p1464
aVcoal_128.jpg
p1465
aVcoal_129.jpg
p1466
aVcoal_132.png
p1467
aVcoal_134.jpg
p1468
aVcoal_135.jpg
p1469
aVcoal_136.png
p1470
aVcoal_137.jpg
p1471
aVcoal_138.jpg
p1472
aVcoal_139.jpg
p1473
aVcoal_14.jpg
p1474
aVcoal_140.jpg
p1475
aVcoal_142.jpg
p1476
aVcoal_145.jpg
p1477
aVcoal_148.jpg
p1478
aVcoal_16.jpg
p1479
aVcoal_17.jpg
p1480
aVcoal_19.jpg
p1481
aVcoal_20.jpg
p1482
aVcoal_23.jpg
p1483
aVcoal_25.jpg
p1484
aVcoal_26.jpg
p1485
aVcoal_27.jpg
p1486
aVcoal_28.jpg
p1487
aVcoal_3.jpg
p1488
aVcoal_30.jpg
p1489
aVcoal_32.jpg
p1490
aVcoal_33.jpg
p1491
aVcoal_39.jpg
p1492
aVcoal_4.jpg
p1493
aVcoal_40.jpg
p1494
aVcoal_41.jpg
p1495
aVcoal_42.jpg
p1496
aVcoal_43.jpg
p1497
aVcoal_44.jpg
p1498
aVcoal_46.jpg
p1499
aVcoal_49.jpg
p1500
aVcoal_52.jpg
p1501
aVcoal_54.jpg
p1502
aVcoal_57.jpg
p1503
aVcoal_58.jpg
p1504
aVcoal_59.jpg
p1505
aVcoal_6.jpg
p1506
aVcoal_60.jpg
p1507
aVcoal_62.jpg
p1508
aVcoal_68.jpg
p1509
aVcoal_7.jpg
p1510
aVcoal_70.jpg
p1511
aVcoal_71.png
p1512
aVcoal_72.jpg
p1513
aVcoal_73.jpg
p1514
aVcoal_76.jpg
p1515
aVcoal_78.jpg
p1516
aVcoal_8.jpg
p1517
aVcoal_81.jpg
p1518
aVcoal_83.jpg
p1519
aVcoal_86.jpg
p1520
aVcoal_87.jpg
p1521
aVcoal_89.jpg
p1522
aVcoal_90.jpg
p1523
aVcoal_91.jpg
p1524
aVcoal_94.jpg
p1525
aVcoffee_0.jpg
p1526
aVcoffee_10.jpg
p1527
aVcoffee_100.jpg
p1528
aVcoffee_102.jpg
p1529
aVcoffee_105.jpg
p1530
aVcoffee_106.jpg
p1531
aVcoffee_108.jpg
p1532
aVcoffee_109.jpg
p1533
aVcoffee_111.jpg
p1534
aVcoffee_112.jpg
p1535
aVcoffee_114.jpg
p1536
aVcoffee_118.jpg
p1537
aVcoffee_119.jpg
p1538
aVcoffee_12.jpg
p1539
aVcoffee_121.jpg
p1540
aVcoffee_122.jpg
p1541
aVcoffee_124.jpeg
p1542
aVcoffee_125.jpg
p1543
aVcoffee_127.jpg
p1544
aVcoffee_13.jpg
p1545
aVcoffee_130.jpg
p1546
aVcoffee_134.jpg
p1547
aVcoffee_135.jpg
p1548
aVcoffee_137.jpg
p1549
aVcoffee_14.jpg
p1550
aVcoffee_140.jpg
p1551
aVcoffee_142.jpg
p1552
aVcoffee_143.jpg
p1553
aVcoffee_144.jpg
p1554
aVcoffee_146.jpg
p1555
aVcoffee_15.jpg
p1556
aVcoffee_16.jpg
p1557
aVcoffee_18.jpeg
p1558
aVcoffee_23.jpg
p1559
aVcoffee_25.jpg
p1560
aVcoffee_26.jpg
p1561
aVcoffee_29.jpg
p1562
aVcoffee_30.jpg
p1563
aVcoffee_32.jpg
p1564
aVcoffee_34.jpg
p1565
aVcoffee_36.jpg
p1566
aVcoffee_38.jpg
p1567
aVcoffee_41.jpg
p1568
aVcoffee_45.jpg
p1569
aVcoffee_46.jpg
p1570
aVcoffee_48.jpg
p1571
aVcoffee_52.jpg
p1572
aVcoffee_54.jpg
p1573
aVcoffee_55.jpg
p1574
aVcoffee_57.jpg
p1575
aVcoffee_58.jpg
p1576
aVcoffee_6.jpg
p1577
aVcoffee_62.jpeg
p1578
aVcoffee_63.jpg
p1579
aVcoffee_66.jpg
p1580
aVcoffee_68.png
p1581
aVcoffee_7.jpg
p1582
aVcoffee_70.jpg
p1583
aVcoffee_71.jpg
p1584
aVcoffee_76.jpg
p1585
aVcoffee_77.jpg
p1586
aVcoffee_78.jpg
p1587
aVcoffee_80.jpg
p1588
aVcoffee_82.jpg
p1589
aVcoffee_84.jpg
p1590
aVcoffee_87.jpg
p1591
aVcoffee_89.jpg
p1592
aVcoffee_9.jpg
p1593
aVcoffee_90.jpg
p1594
aVcoffee_94.jpg
p1595
aVcoffee_95.jpg
p1596
aVcoffee_98.png
p1597
aVconcert_1.jpg
p1598
aVconcert_10.jpg
p1599
aVconcert_100.jpg
p1600
aVconcert_102.jpg
p1601
aVconcert_103.jpg
p1602
aVconcert_104.jpg
p1603
aVconcert_105.jpg
p1604
aVconcert_108.jpg
p1605
aVconcert_110.jpg
p1606
aVconcert_112.jpg
p1607
aVconcert_115.jpg
p1608
aVconcert_116.jpg
p1609
aVconcert_119.jpg
p1610
aVconcert_12.jpg
p1611
aVconcert_120.jpg
p1612
aVconcert_121.jpg
p1613
aVconcert_124.jpg
p1614
aVconcert_126.jpg
p1615
aVconcert_129.png
p1616
aVconcert_131.jpg
p1617
aVconcert_132.jpg
p1618
aVconcert_136.jpg
p1619
aVconcert_138.jpg
p1620
aVconcert_14.jpg
p1621
aVconcert_140.jpg
p1622
aVconcert_142.jpg
p1623
aVconcert_144.jpg
p1624
aVconcert_147.jpg
p1625
aVconcert_148.jpg
p1626
aVconcert_16.jpg
p1627
aVconcert_17.jpg
p1628
aVconcert_19.jpg
p1629
aVconcert_20.jpg
p1630
aVconcert_23.jpg
p1631
aVconcert_26.jpg
p1632
aVconcert_28.jpeg
p1633
aVconcert_3.jpeg
p1634
aVconcert_30.jpg
p1635
aVconcert_33.jpg
p1636
aVconcert_36.jpg
p1637
aVconcert_38.jpg
p1638
aVconcert_39.jpg
p1639
aVconcert_4.jpg
p1640
aVconcert_40.jpg
p1641
aVconcert_42.jpg
p1642
aVconcert_44.jpg
p1643
aVconcert_48.jpg
p1644
aVconcert_49.jpg
p1645
aVconcert_51.jpg
p1646
aVconcert_54.jpg
p1647
aVconcert_55.jpg
p1648
aVconcert_56.jpg
p1649
aVconcert_58.jpg
p1650
aVconcert_60.jpg
p1651
aVconcert_62.jpg
p1652
aVconcert_67.jpg
p1653
aVconcert_7.jpg
p1654
aVconcert_70.jpg
p1655
aVconcert_71.jpg
p1656
aVconcert_73.jpg
p1657
aVconcert_74.jpg
p1658
aVconcert_76.jpg
p1659
aVconcert_78.jpg
p1660
aVconcert_8.jpg
p1661
aVconcert_80.jpg
p1662
aVconcert_83.jpg
p1663
aVconcert_84.jpg
p1664
aVconcert_86.jpg
p1665
aVconcert_88.jpg
p1666
aVconcert_89.jpg
p1667
aVconcert_9.jpg
p1668
aVconcert_90.jpg
p1669
aVconcert_94.jpg
p1670
aVconcert_96.jpg
p1671
aVconcert_97.png
p1672
aVconcert_99.jpg
p1673
aVcows_1.jpg
p1674
aVcows_10.jpg
p1675
aVcows_100.jpg
p1676
aVcows_101.jpg
p1677
aVcows_104.jpg
p1678
aVcows_106.jpg
p1679
aVcows_107.jpg
p1680
aVcows_109.jpg
p1681
aVcows_11.jpg
p1682
aVcows_113.jpg
p1683
aVcows_114.jpg
p1684
aVcows_118.jpg
p1685
aVcows_120.jpg
p1686
aVcows_123.jpg
p1687
aVcows_125.jpg
p1688
aVcows_126.jpg
p1689
aVcows_13.jpg
p1690
aVcows_130.jpg
p1691
aVcows_131.jpg
p1692
aVcows_132.jpg
p1693
aVcows_133.jpg
p1694
aVcows_14.jpg
p1695
aVcows_141.jpg
p1696
aVcows_144.jpg
p1697
aVcows_146.jpg
p1698
aVcows_148.jpg
p1699
aVcows_149.jpg
p1700
aVcows_18.jpg
p1701
aVcows_19.jpg
p1702
aVcows_2.jpg
p1703
aVcows_20.jpg
p1704
aVcows_22.jpg
p1705
aVcows_24.jpg
p1706
aVcows_27.jpg
p1707
aVcows_30.jpg
p1708
aVcows_35.jpg
p1709
aVcows_37.jpg
p1710
aVcows_40.jpg
p1711
aVcows_42.jpg
p1712
aVcows_43.png
p1713
aVcows_45.jpg
p1714
aVcows_48.jpg
p1715
aVcows_49.jpg
p1716
aVcows_5.jpg
p1717
aVcows_51.jpg
p1718
aVcows_52.jpg
p1719
aVcows_58.jpg
p1720
aVcows_6.jpg
p1721
aVcows_61.jpg
p1722
aVcows_66.jpg
p1723
aVcows_69.jpg
p1724
aVcows_70.jpg
p1725
aVcows_72.jpg
p1726
aVcows_8.png
p1727
aVcows_81.jpg
p1728
aVcows_82.jpg
p1729
aVcows_84.jpg
p1730
aVcows_85.jpg
p1731
aVcows_86.jpg
p1732
aVcows_91.jpeg
p1733
aVcows_93.jpg
p1734
aVcows_97.png
p1735
aVcows_99.jpg
p1736
aVcrater_0.jpg
p1737
aVcrater_1.jpg
p1738
aVcrater_10.jpg
p1739
aVcrater_100.jpg
p1740
aVcrater_105.jpg
p1741
aVcrater_106.jpg
p1742
aVcrater_108.jpg
p1743
aVcrater_109.jpg
p1744
aVcrater_111.jpg
p1745
aVcrater_113.jpg
p1746
aVcrater_118.jpg
p1747
aVcrater_12.jpg
p1748
aVcrater_121.jpg
p1749
aVcrater_122.jpg
p1750
aVcrater_127.jpg
p1751
aVcrater_130.jpg
p1752
aVcrater_132.jpg
p1753
aVcrater_135.jpg
p1754
aVcrater_137.jpg
p1755
aVcrater_138.jpg
p1756
aVcrater_14.jpg
p1757
aVcrater_140.jpg
p1758
aVcrater_141.jpg
p1759
aVcrater_142.jpg
p1760
aVcrater_143.jpg
p1761
aVcrater_144.png
p1762
aVcrater_146.jpg
p1763
aVcrater_15.jpg
p1764
aVcrater_16.jpg
p1765
aVcrater_17.jpg
p1766
aVcrater_18.jpg
p1767
aVcrater_2.jpg
p1768
aVcrater_22.jpg
p1769
aVcrater_23.jpg
p1770
aVcrater_26.jpg
p1771
aVcrater_29.jpg
p1772
aVcrater_30.jpg
p1773
aVcrater_31.jpg
p1774
aVcrater_32.jpg
p1775
aVcrater_34.jpg
p1776
aVcrater_36.jpg
p1777
aVcrater_39.jpg
p1778
aVcrater_4.jpg
p1779
aVcrater_44.jpg
p1780
aVcrater_45.jpg
p1781
aVcrater_48.jpg
p1782
aVcrater_49.jpg
p1783
aVcrater_52.jpg
p1784
aVcrater_54.jpg
p1785
aVcrater_55.jpg
p1786
aVcrater_57.jpg
p1787
aVcrater_58.jpg
p1788
aVcrater_6.jpg
p1789
aVcrater_60.png
p1790
aVcrater_61.jpg
p1791
aVcrater_62.jpg
p1792
aVcrater_63.jpg
p1793
aVcrater_64.jpg
p1794
aVcrater_65.jpg
p1795
aVcrater_68.jpg
p1796
aVcrater_7.jpg
p1797
aVcrater_70.jpg
p1798
aVcrater_71.jpg
p1799
aVcrater_73.jpg
p1800
aVcrater_74.jpg
p1801
aVcrater_76.jpg
p1802
aVcrater_77.jpg
p1803
aVcrater_78.jpg
p1804
aVcrater_80.jpg
p1805
aVcrater_81.jpg
p1806
aVcrater_82.jpg
p1807
aVcrater_86.jpg
p1808
aVcrater_87.jpg
p1809
aVcrater_89.jpg
p1810
aVcrater_9.jpg
p1811
aVcrater_90.jpg
p1812
aVcrater_92.jpg
p1813
aVcrater_94.jpg
p1814
aVcrater_96.jpg
p1815
aVcrater_97.jpg
p1816
aVcrater_98.jpg
p1817
aVcream_0.jpg
p1818
aVcream_1.jpg
p1819
aVcream_10.jpg
p1820
aVcream_100.jpg
p1821
aVcream_102.jpg
p1822
aVcream_103.jpg
p1823
aVcream_105.jpg
p1824
aVcream_106.jpg
p1825
aVcream_108.jpg
p1826
aVcream_109.jpg
p1827
aVcream_110.jpg
p1828
aVcream_111.jpg
p1829
aVcream_112.jpg
p1830
aVcream_113.jpg
p1831
aVcream_119.jpg
p1832
aVcream_12.png
p1833
aVcream_121.jpeg
p1834
aVcream_124.jpg
p1835
aVcream_126.jpg
p1836
aVcream_129.jpg
p1837
aVcream_13.jpg
p1838
aVcream_132.jpg
p1839
aVcream_134.jpg
p1840
aVcream_137.png
p1841
aVcream_140.jpg
p1842
aVcream_142.jpg
p1843
aVcream_146.jpg
p1844
aVcream_148.jpg
p1845
aVcream_15.jpg
p1846
aVcream_16.jpg
p1847
aVcream_17.jpg
p1848
aVcream_18.jpg
p1849
aVcream_2.jpg
p1850
aVcream_22.jpg
p1851
aVcream_23.jpg
p1852
aVcream_25.jpg
p1853
aVcream_29.jpg
p1854
aVcream_32.jpg
p1855
aVcream_33.jpg
p1856
aVcream_34.jpg
p1857
aVcream_36.jpg
p1858
aVcream_38.jpg
p1859
aVcream_39.jpg
p1860
aVcream_42.jpg
p1861
aVcream_44.jpg
p1862
aVcream_49.jpg
p1863
aVcream_50.jpg
p1864
aVcream_52.jpg
p1865
aVcream_55.jpg
p1866
aVcream_58.jpg
p1867
aVcream_6.jpg
p1868
aVcream_60.jpg
p1869
aVcream_61.jpg
p1870
aVcream_62.jpg
p1871
aVcream_65.jpg
p1872
aVcream_66.jpg
p1873
aVcream_68.jpg
p1874
aVcream_76.jpg
p1875
aVcream_78.jpg
p1876
aVcream_79.png
p1877
aVcream_81.jpg
p1878
aVcream_82.jpg
p1879
aVcream_84.jpg
p1880
aVcream_87.jpg
p1881
aVcream_89.jpg
p1882
aVcream_90.png
p1883
aVcream_92.jpg
p1884
aVcream_93.jpg
p1885
aVcream_94.jpg
p1886
aVcream_96.png
p1887
aVdelhi_1.jpg
p1888
aVdelhi_101.jpg
p1889
aVdelhi_103.jpg
p1890
aVdelhi_104.jpg
p1891
aVdelhi_106.jpg
p1892
aVdelhi_107.jpg
p1893
aVdelhi_108.jpg
p1894
aVdelhi_11.jpg
p1895
aVdelhi_112.jpg
p1896
aVdelhi_113.jpg
p1897
aVdelhi_114.jpg
p1898
aVdelhi_116.jpg
p1899
aVdelhi_117.jpg
p1900
aVdelhi_118.jpg
p1901
aVdelhi_12.jpg
p1902
aVdelhi_120.jpg
p1903
aVdelhi_123.jpg
p1904
aVdelhi_128.jpg
p1905
aVdelhi_129.jpg
p1906
aVdelhi_13.jpg
p1907
aVdelhi_130.jpg
p1908
aVdelhi_132.jpg
p1909
aVdelhi_133.jpg
p1910
aVdelhi_134.jpg
p1911
aVdelhi_135.jpg
p1912
aVdelhi_136.jpg
p1913
aVdelhi_137.jpg
p1914
aVdelhi_138.jpg
p1915
aVdelhi_143.jpg
p1916
aVdelhi_149.jpg
p1917
aVdelhi_16.jpg
p1918
aVdelhi_18.jpg
p1919
aVdelhi_19.jpg
p1920
aVdelhi_22.jpg
p1921
aVdelhi_24.jpg
p1922
aVdelhi_25.jpg
p1923
aVdelhi_29.jpg
p1924
aVdelhi_3.jpg
p1925
aVdelhi_31.jpg
p1926
aVdelhi_40.jpg
p1927
aVdelhi_44.jpg
p1928
aVdelhi_45.jpg
p1929
aVdelhi_47.jpg
p1930
aVdelhi_48.jpg
p1931
aVdelhi_5.jpg
p1932
aVdelhi_50.jpg
p1933
aVdelhi_51.jpg
p1934
aVdelhi_53.jpg
p1935
aVdelhi_54.jpg
p1936
aVdelhi_55.jpg
p1937
aVdelhi_56.jpg
p1938
aVdelhi_6.jpg
p1939
aVdelhi_60.jpg
p1940
aVdelhi_61.jpg
p1941
aVdelhi_63.jpg
p1942
aVdelhi_68.jpg
p1943
aVdelhi_69.jpg
p1944
aVdelhi_70.jpg
p1945
aVdelhi_72.jpg
p1946
aVdelhi_73.jpg
p1947
aVdelhi_74.jpg
p1948
aVdelhi_79.jpg
p1949
aVdelhi_8.jpg
p1950
aVdelhi_81.jpg
p1951
aVdelhi_83.jpg
p1952
aVdelhi_85.jpg
p1953
aVdelhi_86.jpg
p1954
aVdelhi_9.jpg
p1955
aVdelhi_90.jpg
p1956
aVdelhi_95.jpg
p1957
aVdelhi_96.jpg
p1958
aVdelhi_97.jpg
p1959
aVdelhi_98.jpg
p1960
aVdesert_1.jpg
p1961
aVdesert_100.jpg
p1962
aVdesert_101.jpg
p1963
aVdesert_103.jpg
p1964
aVdesert_104.jpg
p1965
aVdesert_105.jpg
p1966
aVdesert_106.jpeg
p1967
aVdesert_107.jpg
p1968
aVdesert_108.jpg
p1969
aVdesert_109.jpg
p1970
aVdesert_11.jpg
p1971
aVdesert_111.jpg
p1972
aVdesert_115.jpg
p1973
aVdesert_116.jpg
p1974
aVdesert_117.jpg
p1975
aVdesert_118.jpg
p1976
aVdesert_119.jpg
p1977
aVdesert_12.jpg
p1978
aVdesert_121.jpg
p1979
aVdesert_122.jpg
p1980
aVdesert_123.jpg
p1981
aVdesert_124.jpg
p1982
aVdesert_125.jpg
p1983
aVdesert_126.jpg
p1984
aVdesert_127.jpg
p1985
aVdesert_128.jpg
p1986
aVdesert_13.jpg
p1987
aVdesert_130.jpg
p1988
aVdesert_131.jpg
p1989
aVdesert_132.jpg
p1990
aVdesert_133.jpg
p1991
aVdesert_134.jpg
p1992
aVdesert_135.jpg
p1993
aVdesert_136.jpg
p1994
aVdesert_137.jpg
p1995
aVdesert_138.jpg
p1996
aVdesert_14.jpg
p1997
aVdesert_140.jpg
p1998
aVdesert_141.jpg
p1999
aVdesert_142.jpg
p2000
aVdesert_143.jpg
p2001
aVdesert_144.jpg
p2002
aVdesert_146.jpg
p2003
aVdesert_147.jpg
p2004
aVdesert_148.jpg
p2005
aVdesert_149.jpg
p2006
aVdesert_15.jpg
p2007
aVdesert_16.jpg
p2008
aVdesert_17.jpeg
p2009
aVdesert_18.jpg
p2010
aVdesert_19.jpg
p2011
aVdesert_21.jpg
p2012
aVdesert_25.jpg
p2013
aVdesert_26.jpg
p2014
aVdesert_27.jpg
p2015
aVdesert_29.jpg
p2016
aVdesert_30.jpg
p2017
aVdesert_31.jpg
p2018
aVdesert_33.jpg
p2019
aVdesert_34.jpg
p2020
aVdesert_35.jpg
p2021
aVdesert_36.jpg
p2022
aVdesert_37.jpg
p2023
aVdesert_38.jpg
p2024
aVdesert_39.jpg
p2025
aVdesert_4.jpg
p2026
aVdesert_40.jpg
p2027
aVdesert_41.jpg
p2028
aVdesert_42.jpg
p2029
aVdesert_43.jpg
p2030
aVdesert_44.jpg
p2031
aVdesert_45.jpg
p2032
aVdesert_46.jpg
p2033
aVdesert_47.jpg
p2034
aVdesert_48.jpg
p2035
aVdesert_49.jpg
p2036
aVdesert_5.jpg
p2037
aVdesert_50.jpg
p2038
aVdesert_51.jpg
p2039
aVdesert_53.jpg
p2040
aVdesert_55.jpg
p2041
aVdesert_58.jpg
p2042
aVdesert_6.jpg
p2043
aVdesert_60.jpg
p2044
aVdesert_61.jpg
p2045
aVdesert_62.jpg
p2046
aVdesert_63.png
p2047
aVdesert_64.jpg
p2048
aVdesert_65.jpg
p2049
aVdesert_66.jpg
p2050
aVdesert_68.jpg
p2051
aVdesert_69.jpg
p2052
aVdesert_7.jpg
p2053
aVdesert_70.jpg
p2054
aVdesert_71.jpg
p2055
aVdesert_72.jpg
p2056
aVdesert_73.jpg
p2057
aVdesert_74.jpg
p2058
aVdesert_75.jpg
p2059
aVdesert_76.jpg
p2060
aVdesert_77.jpg
p2061
aVdesert_78.jpg
p2062
aVdesert_79.png
p2063
aVdesert_80.jpg
p2064
aVdesert_81.jpg
p2065
aVdesert_83.jpg
p2066
aVdesert_84.jpg
p2067
aVdesert_85.jpg
p2068
aVdesert_86.jpg
p2069
aVdesert_87.jpg
p2070
aVdesert_88.jpg
p2071
aVdesert_89.jpg
p2072
aVdesert_9.jpg
p2073
aVdesert_91.jpg
p2074
aVdesert_92.jpg
p2075
aVdesert_93.jpg
p2076
aVdesert_94.jpg
p2077
aVdesert_96.jpg
p2078
aVdesert_97.png
p2079
aVdesert_98.jpg
p2080
aVdesert_99.jpg
p2081
aVdog_0.jpg
p2082
aVdog_1.jpg
p2083
aVdog_10.jpg
p2084
aVdog_100.jpg
p2085
aVdog_102.jpeg
p2086
aVdog_106.jpg
p2087
aVdog_107.jpg
p2088
aVdog_11.jpg
p2089
aVdog_110.jpg
p2090
aVdog_118.jpg
p2091
aVdog_12.jpg
p2092
aVdog_123.jpg
p2093
aVdog_124.jpg
p2094
aVdog_126.jpg
p2095
aVdog_128.jpg
p2096
aVdog_131.jpg
p2097
aVdog_132.jpg
p2098
aVdog_134.jpg
p2099
aVdog_135.jpg
p2100
aVdog_136.jpg
p2101
aVdog_138.jpg
p2102
aVdog_139.png
p2103
aVdog_144.jpg
p2104
aVdog_145.jpg
p2105
aVdog_147.jpg
p2106
aVdog_16.jpg
p2107
aVdog_19.jpg
p2108
aVdog_20.jpg
p2109
aVdog_22.jpg
p2110
aVdog_23.jpeg
p2111
aVdog_24.jpg
p2112
aVdog_28.jpg
p2113
aVdog_3.jpg
p2114
aVdog_32.jpg
p2115
aVdog_33.jpg
p2116
aVdog_35.jpg
p2117
aVdog_36.jpg
p2118
aVdog_38.jpg
p2119
aVdog_39.jpg
p2120
aVdog_40.jpg
p2121
aVdog_41.jpg
p2122
aVdog_42.jpg
p2123
aVdog_43.jpg
p2124
aVdog_46.jpg
p2125
aVdog_49.jpg
p2126
aVdog_51.jpg
p2127
aVdog_52.jpg
p2128
aVdog_55.png
p2129
aVdog_56.jpg
p2130
aVdog_58.jpg
p2131
aVdog_59.jpg
p2132
aVdog_6.jpg
p2133
aVdog_60.jpg
p2134
aVdog_62.jpg
p2135
aVdog_64.jpg
p2136
aVdog_65.jpg
p2137
aVdog_68.jpg
p2138
aVdog_7.jpg
p2139
aVdog_71.jpg
p2140
aVdog_72.jpg
p2141
aVdog_73.jpg
p2142
aVdog_74.jpg
p2143
aVdog_76.jpg
p2144
aVdog_80.jpg
p2145
aVdog_81.jpg
p2146
aVdog_88.jpg
p2147
aVdog_89.jpg
p2148
aVdog_90.jpg
p2149
aVdog_97.jpg
p2150
aVdubai+dera_100.jpg
p2151
aVdubai+dera_102.jpg
p2152
aVdubai+dera_103.jpg
p2153
aVdubai+dera_115.jpg
p2154
aVdubai+dera_12.jpg
p2155
aVdubai+dera_120.jpg
p2156
aVdubai+dera_122.jpg
p2157
aVdubai+dera_124.jpg
p2158
aVdubai+dera_129.jpg
p2159
aVdubai+dera_134.jpg
p2160
aVdubai+dera_136.jpg
p2161
aVdubai+dera_138.jpg
p2162
aVdubai+dera_140.jpg
p2163
aVdubai+dera_148.jpg
p2164
aVdubai+dera_32.jpg
p2165
aVdubai+dera_49.jpg
p2166
aVdubai+dera_51.jpg
p2167
aVdubai+dera_54.jpg
p2168
aVdubai+dera_55.jpg
p2169
aVdubai+dera_65.jpg
p2170
aVdubai+dera_67.jpg
p2171
aVdubai+dera_80.jpg
p2172
aVdubai+dera_90.jpg
p2173
aVdubai+dera_96.jpg
p2174
aVdubai+dera_97.jpg
p2175
aVeagle_0.jpg
p2176
aVeagle_10.jpg
p2177
aVeagle_100.jpg
p2178
aVeagle_101.jpg
p2179
aVeagle_104.jpg
p2180
aVeagle_106.jpg
p2181
aVeagle_107.jpg
p2182
aVeagle_109.jpg
p2183
aVeagle_11.jpg
p2184
aVeagle_110.jpg
p2185
aVeagle_112.jpg
p2186
aVeagle_114.jpg
p2187
aVeagle_116.jpg
p2188
aVeagle_117.jpg
p2189
aVeagle_119.jpg
p2190
aVeagle_12.jpg
p2191
aVeagle_120.jpg
p2192
aVeagle_122.png
p2193
aVeagle_124.jpg
p2194
aVeagle_125.jpg
p2195
aVeagle_126.jpg
p2196
aVeagle_128.jpg
p2197
aVeagle_130.jpg
p2198
aVeagle_132.jpg
p2199
aVeagle_133.jpg
p2200
aVeagle_135.jpg
p2201
aVeagle_138.jpg
p2202
aVeagle_14.jpg
p2203
aVeagle_140.jpg
p2204
aVeagle_141.jpg
p2205
aVeagle_142.jpg
p2206
aVeagle_144.jpg
p2207
aVeagle_146.jpg
p2208
aVeagle_148.jpg
p2209
aVeagle_149.jpg
p2210
aVeagle_20.jpg
p2211
aVeagle_21.jpg
p2212
aVeagle_24.jpg
p2213
aVeagle_27.jpg
p2214
aVeagle_28.jpg
p2215
aVeagle_29.jpg
p2216
aVeagle_30.jpg
p2217
aVeagle_36.jpg
p2218
aVeagle_37.jpg
p2219
aVeagle_42.jpg
p2220
aVeagle_43.jpg
p2221
aVeagle_44.jpg
p2222
aVeagle_45.jpg
p2223
aVeagle_46.jpg
p2224
aVeagle_48.jpeg
p2225
aVeagle_5.jpg
p2226
aVeagle_52.jpg
p2227
aVeagle_53.jpg
p2228
aVeagle_55.jpg
p2229
aVeagle_56.jpg
p2230
aVeagle_58.jpg
p2231
aVeagle_61.jpg
p2232
aVeagle_62.jpg
p2233
aVeagle_66.jpg
p2234
aVeagle_68.jpg
p2235
aVeagle_69.png
p2236
aVeagle_7.jpg
p2237
aVeagle_71.jpg
p2238
aVeagle_72.jpg
p2239
aVeagle_74.jpg
p2240
aVeagle_77.jpg
p2241
aVeagle_80.jpg
p2242
aVeagle_82.jpg
p2243
aVeagle_85.jpg
p2244
aVeagle_87.jpg
p2245
aVeagle_90.jpg
p2246
aVeagle_91.jpg
p2247
aVeagle_92.jpg
p2248
aVeagle_93.jpg
p2249
aVeagle_96.png
p2250
aVeagle_98.jpg
p2251
aVempty+street_0.jpg
p2252
aVempty+street_1.jpg
p2253
aVempty+street_10.jpg
p2254
aVempty+street_101.jpg
p2255
aVempty+street_105.jpg
p2256
aVempty+street_107.jpg
p2257
aVempty+street_108.jpg
p2258
aVempty+street_109.jpg
p2259
aVempty+street_110.jpg
p2260
aVempty+street_113.jpg
p2261
aVempty+street_115.jpg
p2262
aVempty+street_118.jpg
p2263
aVempty+street_119.jpg
p2264
aVempty+street_121.jpg
p2265
aVempty+street_122.jpg
p2266
aVempty+street_123.jpg
p2267
aVempty+street_125.jpg
p2268
aVempty+street_126.jpg
p2269
aVempty+street_128.jpg
p2270
aVempty+street_129.jpg
p2271
aVempty+street_13.jpg
p2272
aVempty+street_131.jpg
p2273
aVempty+street_137.jpg
p2274
aVempty+street_138.jpg
p2275
aVempty+street_14.jpg
p2276
aVempty+street_140.jpg
p2277
aVempty+street_141.jpg
p2278
aVempty+street_142.jpg
p2279
aVempty+street_144.jpg
p2280
aVempty+street_147.jpg
p2281
aVempty+street_19.jpg
p2282
aVempty+street_2.jpg
p2283
aVempty+street_20.jpg
p2284
aVempty+street_23.jpg
p2285
aVempty+street_25.jpg
p2286
aVempty+street_26.jpg
p2287
aVempty+street_27.jpg
p2288
aVempty+street_28.jpg
p2289
aVempty+street_29.jpg
p2290
aVempty+street_34.jpg
p2291
aVempty+street_35.jpg
p2292
aVempty+street_36.jpg
p2293
aVempty+street_37.jpg
p2294
aVempty+street_4.jpg
p2295
aVempty+street_41.jpg
p2296
aVempty+street_42.jpg
p2297
aVempty+street_43.jpg
p2298
aVempty+street_44.jpg
p2299
aVempty+street_45.jpg
p2300
aVempty+street_46.jpg
p2301
aVempty+street_47.jpg
p2302
aVempty+street_48.jpg
p2303
aVempty+street_49.jpg
p2304
aVempty+street_5.jpg
p2305
aVempty+street_58.jpg
p2306
aVempty+street_60.jpg
p2307
aVempty+street_63.jpg
p2308
aVempty+street_64.jpg
p2309
aVempty+street_65.jpg
p2310
aVempty+street_67.jpg
p2311
aVempty+street_68.jpg
p2312
aVempty+street_69.jpg
p2313
aVempty+street_77.jpg
p2314
aVempty+street_80.jpg
p2315
aVempty+street_81.jpg
p2316
aVempty+street_83.jpg
p2317
aVempty+street_9.jpg
p2318
aVempty+street_90.jpg
p2319
aVempty+street_91.jpg
p2320
aVempty+street_92.jpg
p2321
aVempty+street_94.jpg
p2322
aVempty+street_96.jpg
p2323
aVempty+street_98.jpg
p2324
aVempty+street_99.jpg
p2325
aVeric+clapton_1.jpg
p2326
aVeric+clapton_100.jpg
p2327
aVeric+clapton_102.jpg
p2328
aVeric+clapton_105.jpg
p2329
aVeric+clapton_11.jpg
p2330
aVeric+clapton_112.jpg
p2331
aVeric+clapton_114.jpg
p2332
aVeric+clapton_118.jpg
p2333
aVeric+clapton_120.jpg
p2334
aVeric+clapton_121.jpg
p2335
aVeric+clapton_126.jpg
p2336
aVeric+clapton_137.jpg
p2337
aVeric+clapton_14.jpg
p2338
aVeric+clapton_140.jpg
p2339
aVeric+clapton_142.jpg
p2340
aVeric+clapton_144.jpg
p2341
aVeric+clapton_145.jpg
p2342
aVeric+clapton_148.jpg
p2343
aVeric+clapton_16.jpg
p2344
aVeric+clapton_18.jpg
p2345
aVeric+clapton_2.jpg
p2346
aVeric+clapton_22.jpg
p2347
aVeric+clapton_24.jpg
p2348
aVeric+clapton_25.jpg
p2349
aVeric+clapton_27.jpg
p2350
aVeric+clapton_28.jpg
p2351
aVeric+clapton_30.jpg
p2352
aVeric+clapton_32.jpg
p2353
aVeric+clapton_33.jpg
p2354
aVeric+clapton_34.jpg
p2355
aVeric+clapton_38.jpg
p2356
aVeric+clapton_4.jpg
p2357
aVeric+clapton_40.jpg
p2358
aVeric+clapton_44.jpg
p2359
aVeric+clapton_46.png
p2360
aVeric+clapton_47.jpg
p2361
aVeric+clapton_48.jpg
p2362
aVeric+clapton_56.jpg
p2363
aVeric+clapton_57.jpg
p2364
aVeric+clapton_6.jpg
p2365
aVeric+clapton_60.jpg
p2366
aVeric+clapton_63.jpg
p2367
aVeric+clapton_66.jpg
p2368
aVeric+clapton_68.jpg
p2369
aVeric+clapton_70.jpg
p2370
aVeric+clapton_73.jpg
p2371
aVeric+clapton_75.jpg
p2372
aVeric+clapton_76.jpg
p2373
aVeric+clapton_78.jpg
p2374
aVeric+clapton_79.jpg
p2375
aVeric+clapton_8.jpg
p2376
aVeric+clapton_80.jpg
p2377
aVeric+clapton_86.jpg
p2378
aVeric+clapton_89.jpg
p2379
aVeric+clapton_9.jpg
p2380
aVeric+clapton_96.jpg
p2381
aVeric+clapton_97.jpg
p2382
aVfarm_0.jpg
p2383
aVfarm_1.jpg
p2384
aVfarm_10.jpg
p2385
aVfarm_100.jpg
p2386
aVfarm_101.jpg
p2387
aVfarm_102.jpg
p2388
aVfarm_104.jpg
p2389
aVfarm_105.jpg
p2390
aVfarm_106.jpg
p2391
aVfarm_108.jpg
p2392
aVfarm_109.jpg
p2393
aVfarm_11.jpg
p2394
aVfarm_112.jpg
p2395
aVfarm_113.jpg
p2396
aVfarm_114.jpg
p2397
aVfarm_115.jpg
p2398
aVfarm_117.jpg
p2399
aVfarm_118.jpg
p2400
aVfarm_119.jpg
p2401
aVfarm_12.jpg
p2402
aVfarm_120.jpg
p2403
aVfarm_121.jpg
p2404
aVfarm_122.jpg
p2405
aVfarm_123.jpg
p2406
aVfarm_125.jpg
p2407
aVfarm_128.jpg
p2408
aVfarm_13.jpg
p2409
aVfarm_130.jpg
p2410
aVfarm_131.jpg
p2411
aVfarm_132.jpg
p2412
aVfarm_133.jpg
p2413
aVfarm_135.jpg
p2414
aVfarm_136.png
p2415
aVfarm_138.jpg
p2416
aVfarm_139.jpg
p2417
aVfarm_14.jpg
p2418
aVfarm_140.jpg
p2419
aVfarm_142.jpg
p2420
aVfarm_143.jpg
p2421
aVfarm_144.jpg
p2422
aVfarm_145.jpg
p2423
aVfarm_146.jpg
p2424
aVfarm_149.jpg
p2425
aVfarm_15.jpg
p2426
aVfarm_17.jpg
p2427
aVfarm_18.jpg
p2428
aVfarm_19.jpg
p2429
aVfarm_2.jpg
p2430
aVfarm_20.jpg
p2431
aVfarm_21.jpg
p2432
aVfarm_23.jpg
p2433
aVfarm_24.jpg
p2434
aVfarm_25.jpg
p2435
aVfarm_26.jpg
p2436
aVfarm_28.jpg
p2437
aVfarm_29.jpg
p2438
aVfarm_3.jpg
p2439
aVfarm_30.jpg
p2440
aVfarm_31.jpg
p2441
aVfarm_33.jpg
p2442
aVfarm_34.jpg
p2443
aVfarm_35.jpg
p2444
aVfarm_36.jpeg
p2445
aVfarm_37.jpg
p2446
aVfarm_39.jpg
p2447
aVfarm_4.jpg
p2448
aVfarm_40.jpg
p2449
aVfarm_41.jpg
p2450
aVfarm_42.jpg
p2451
aVfarm_43.jpg
p2452
aVfarm_44.jpg
p2453
aVfarm_45.png
p2454
aVfarm_46.png
p2455
aVfarm_47.jpg
p2456
aVfarm_48.jpg
p2457
aVfarm_49.jpg
p2458
aVfarm_5.jpg
p2459
aVfarm_50.jpg
p2460
aVfarm_51.jpg
p2461
aVfarm_54.jpg
p2462
aVfarm_55.jpg
p2463
aVfarm_56.jpg
p2464
aVfarm_57.jpg
p2465
aVfarm_58.jpg
p2466
aVfarm_59.jpg
p2467
aVfarm_62.jpg
p2468
aVfarm_64.jpg
p2469
aVfarm_65.jpeg
p2470
aVfarm_66.jpg
p2471
aVfarm_67.jpg
p2472
aVfarm_69.jpg
p2473
aVfarm_7.jpg
p2474
aVfarm_70.jpg
p2475
aVfarm_71.jpg
p2476
aVfarm_73.jpg
p2477
aVfarm_74.jpg
p2478
aVfarm_77.png
p2479
aVfarm_79.jpg
p2480
aVfarm_8.jpg
p2481
aVfarm_80.jpg
p2482
aVfarm_81.jpg
p2483
aVfarm_84.jpg
p2484
aVfarm_85.jpg
p2485
aVfarm_86.jpg
p2486
aVfarm_88.jpg
p2487
aVfarm_89.jpg
p2488
aVfarm_9.jpg
p2489
aVfarm_90.jpg
p2490
aVfarm_91.jpg
p2491
aVfarm_92.jpg
p2492
aVfarm_93.jpg
p2493
aVfarm_94.jpg
p2494
aVfarm_97.jpg
p2495
aVfarm_98.jpg
p2496
aVfarm_99.jpg
p2497
aVfarmer_1.jpg
p2498
aVfarmer_10.jpg
p2499
aVfarmer_100.jpg
p2500
aVfarmer_102.jpg
p2501
aVfarmer_103.jpg
p2502
aVfarmer_106.jpg
p2503
aVfarmer_110.jpg
p2504
aVfarmer_111.jpg
p2505
aVfarmer_114.jpg
p2506
aVfarmer_116.jpg
p2507
aVfarmer_117.jpg
p2508
aVfarmer_119.jpg
p2509
aVfarmer_12.jpg
p2510
aVfarmer_122.jpg
p2511
aVfarmer_127.jpg
p2512
aVfarmer_129.jpg
p2513
aVfarmer_130.jpg
p2514
aVfarmer_132.jpg
p2515
aVfarmer_133.jpg
p2516
aVfarmer_136.jpg
p2517
aVfarmer_142.jpg
p2518
aVfarmer_143.jpg
p2519
aVfarmer_145.jpg
p2520
aVfarmer_146.jpg
p2521
aVfarmer_148.jpg
p2522
aVfarmer_149.jpg
p2523
aVfarmer_15.jpg
p2524
aVfarmer_17.jpg
p2525
aVfarmer_18.jpg
p2526
aVfarmer_2.jpg
p2527
aVfarmer_20.jpg
p2528
aVfarmer_21.jpg
p2529
aVfarmer_22.jpg
p2530
aVfarmer_23.jpg
p2531
aVfarmer_24.jpg
p2532
aVfarmer_28.jpg
p2533
aVfarmer_30.jpg
p2534
aVfarmer_36.jpg
p2535
aVfarmer_37.jpg
p2536
aVfarmer_38.jpg
p2537
aVfarmer_39.jpg
p2538
aVfarmer_42.jpg
p2539
aVfarmer_44.jpg
p2540
aVfarmer_47.jpg
p2541
aVfarmer_49.jpg
p2542
aVfarmer_50.jpg
p2543
aVfarmer_52.jpg
p2544
aVfarmer_54.jpg
p2545
aVfarmer_55.jpg
p2546
aVfarmer_58.jpg
p2547
aVfarmer_60.jpg
p2548
aVfarmer_62.jpg
p2549
aVfarmer_66.jpg
p2550
aVfarmer_68.jpg
p2551
aVfarmer_69.jpg
p2552
aVfarmer_71.jpg
p2553
aVfarmer_76.jpg
p2554
aVfarmer_78.jpg
p2555
aVfarmer_81.jpg
p2556
aVfarmer_84.jpg
p2557
aVfarmer_86.jpg
p2558
aVfarmer_88.jpg
p2559
aVfarmer_90.jpg
p2560
aVfarmer_97.jpg
p2561
aVflowers_0.jpg
p2562
aVflowers_1.jpg
p2563
aVflowers_100.jpg
p2564
aVflowers_102.jpg
p2565
aVflowers_104.jpg
p2566
aVflowers_105.jpg
p2567
aVflowers_107.jpg
p2568
aVflowers_108.jpg
p2569
aVflowers_11.jpg
p2570
aVflowers_110.jpg
p2571
aVflowers_111.jpg
p2572
aVflowers_112.jpg
p2573
aVflowers_113.jpg
p2574
aVflowers_118.jpg
p2575
aVflowers_12.png
p2576
aVflowers_120.jpg
p2577
aVflowers_121.jpg
p2578
aVflowers_124.jpg
p2579
aVflowers_126.jpg
p2580
aVflowers_127.jpg
p2581
aVflowers_128.jpg
p2582
aVflowers_129.jpg
p2583
aVflowers_130.jpg
p2584
aVflowers_132.jpg
p2585
aVflowers_134.jpg
p2586
aVflowers_136.jpg
p2587
aVflowers_137.jpg
p2588
aVflowers_139.jpg
p2589
aVflowers_14.jpg
p2590
aVflowers_140.png
p2591
aVflowers_142.jpg
p2592
aVflowers_143.jpg
p2593
aVflowers_144.jpg
p2594
aVflowers_146.jpg
p2595
aVflowers_16.jpg
p2596
aVflowers_17.jpg
p2597
aVflowers_18.jpg
p2598
aVflowers_2.jpg
p2599
aVflowers_20.jpg
p2600
aVflowers_22.jpg
p2601
aVflowers_27.jpg
p2602
aVflowers_28.jpg
p2603
aVflowers_30.jpg
p2604
aVflowers_31.jpg
p2605
aVflowers_32.jpg
p2606
aVflowers_34.jpg
p2607
aVflowers_36.jpg
p2608
aVflowers_38.jpg
p2609
aVflowers_4.jpg
p2610
aVflowers_40.jpg
p2611
aVflowers_41.jpg
p2612
aVflowers_44.jpg
p2613
aVflowers_47.jpg
p2614
aVflowers_48.jpg
p2615
aVflowers_50.jpg
p2616
aVflowers_52.jpg
p2617
aVflowers_57.jpg
p2618
aVflowers_6.jpg
p2619
aVflowers_63.jpg
p2620
aVflowers_64.jpg
p2621
aVflowers_66.jpg
p2622
aVflowers_68.jpg
p2623
aVflowers_73.jpg
p2624
aVflowers_75.jpg
p2625
aVflowers_76.jpg
p2626
aVflowers_79.jpg
p2627
aVflowers_8.jpg
p2628
aVflowers_81.jpg
p2629
aVflowers_84.jpg
p2630
aVflowers_86.jpg
p2631
aVflowers_88.jpg
p2632
aVflowers_89.jpg
p2633
aVflowers_9.jpg
p2634
aVflowers_91.jpg
p2635
aVflowers_92.jpg
p2636
aVflowers_94.jpg
p2637
aVflowers_95.jpg
p2638
aVflowers_96.jpg
p2639
aVflowers_97.jpg
p2640
aVfruits_0.jpg
p2641
aVfruits_1.jpg
p2642
aVfruits_101.jpg
p2643
aVfruits_102.jpg
p2644
aVfruits_103.jpg
p2645
aVfruits_106.jpg
p2646
aVfruits_108.jpg
p2647
aVfruits_109.jpg
p2648
aVfruits_11.jpg
p2649
aVfruits_111.jpg
p2650
aVfruits_113.jpg
p2651
aVfruits_115.jpg
p2652
aVfruits_116.jpg
p2653
aVfruits_118.jpg
p2654
aVfruits_119.jpg
p2655
aVfruits_12.jpg
p2656
aVfruits_120.jpg
p2657
aVfruits_121.jpg
p2658
aVfruits_123.jpg
p2659
aVfruits_124.jpg
p2660
aVfruits_125.jpg
p2661
aVfruits_126.jpg
p2662
aVfruits_128.jpg
p2663
aVfruits_129.jpg
p2664
aVfruits_13.jpg
p2665
aVfruits_130.jpg
p2666
aVfruits_133.jpg
p2667
aVfruits_135.jpg
p2668
aVfruits_136.jpg
p2669
aVfruits_137.jpg
p2670
aVfruits_139.jpg
p2671
aVfruits_140.jpg
p2672
aVfruits_141.png
p2673
aVfruits_142.jpg
p2674
aVfruits_143.png
p2675
aVfruits_144.jpg
p2676
aVfruits_145.jpg
p2677
aVfruits_146.jpg
p2678
aVfruits_147.jpg
p2679
aVfruits_148.jpg
p2680
aVfruits_15.jpg
p2681
aVfruits_16.jpg
p2682
aVfruits_17.jpg
p2683
aVfruits_18.jpg
p2684
aVfruits_19.jpg
p2685
aVfruits_2.jpg
p2686
aVfruits_21.jpg
p2687
aVfruits_23.jpg
p2688
aVfruits_25.jpg
p2689
aVfruits_26.jpg
p2690
aVfruits_27.jpg
p2691
aVfruits_28.jpg
p2692
aVfruits_30.jpg
p2693
aVfruits_31.jpg
p2694
aVfruits_32.jpg
p2695
aVfruits_33.jpg
p2696
aVfruits_36.jpg
p2697
aVfruits_37.jpg
p2698
aVfruits_39.jpg
p2699
aVfruits_41.jpg
p2700
aVfruits_42.jpg
p2701
aVfruits_43.jpg
p2702
aVfruits_44.jpg
p2703
aVfruits_47.jpg
p2704
aVfruits_48.jpg
p2705
aVfruits_49.jpg
p2706
aVfruits_5.jpg
p2707
aVfruits_51.jpg
p2708
aVfruits_52.jpg
p2709
aVfruits_53.jpg
p2710
aVfruits_54.jpg
p2711
aVfruits_55.jpg
p2712
aVfruits_56.jpg
p2713
aVfruits_60.jpg
p2714
aVfruits_62.jpg
p2715
aVfruits_63.jpg
p2716
aVfruits_66.jpg
p2717
aVfruits_67.jpg
p2718
aVfruits_69.jpg
p2719
aVfruits_7.jpg
p2720
aVfruits_71.jpg
p2721
aVfruits_73.jpg
p2722
aVfruits_75.jpg
p2723
aVfruits_76.jpg
p2724
aVfruits_78.jpg
p2725
aVfruits_8.png
p2726
aVfruits_80.jpg
p2727
aVfruits_81.jpg
p2728
aVfruits_82.png
p2729
aVfruits_86.jpg
p2730
aVfruits_88.jpg
p2731
aVfruits_9.jpg
p2732
aVfruits_92.jpg
p2733
aVfruits_93.jpg
p2734
aVfruits_95.jpg
p2735
aVfruits_97.jpg
p2736
aVfruits_98.jpg
p2737
aVhedge_0.jpg
p2738
aVhedge_1.jpg
p2739
aVhedge_10.jpg
p2740
aVhedge_100.jpg
p2741
aVhedge_102.jpg
p2742
aVhedge_104.jpg
p2743
aVhedge_106.jpg
p2744
aVhedge_107.jpg
p2745
aVhedge_109.jpg
p2746
aVhedge_11.jpg
p2747
aVhedge_114.jpg
p2748
aVhedge_115.jpg
p2749
aVhedge_116.jpg
p2750
aVhedge_120.jpg
p2751
aVhedge_122.jpg
p2752
aVhedge_123.jpg
p2753
aVhedge_125.jpg
p2754
aVhedge_128.jpg
p2755
aVhedge_129.jpg
p2756
aVhedge_131.jpg
p2757
aVhedge_136.jpg
p2758
aVhedge_138.jpg
p2759
aVhedge_139.jpg
p2760
aVhedge_141.jpg
p2761
aVhedge_145.jpg
p2762
aVhedge_146.jpg
p2763
aVhedge_17.png
p2764
aVhedge_18.jpg
p2765
aVhedge_22.jpg
p2766
aVhedge_26.jpg
p2767
aVhedge_30.jpg
p2768
aVhedge_32.jpg
p2769
aVhedge_34.jpg
p2770
aVhedge_36.jpg
p2771
aVhedge_38.jpg
p2772
aVhedge_4.jpg
p2773
aVhedge_40.jpg
p2774
aVhedge_42.jpg
p2775
aVhedge_43.jpg
p2776
aVhedge_48.jpg
p2777
aVhedge_51.jpg
p2778
aVhedge_52.jpg
p2779
aVhedge_54.jpg
p2780
aVhedge_56.jpg
p2781
aVhedge_58.jpg
p2782
aVhedge_59.jpg
p2783
aVhedge_6.jpg
p2784
aVhedge_61.jpg
p2785
aVhedge_62.jpg
p2786
aVhedge_64.jpg
p2787
aVhedge_65.jpg
p2788
aVhedge_66.jpg
p2789
aVhedge_67.jpg
p2790
aVhedge_68.jpg
p2791
aVhedge_70.jpg
p2792
aVhedge_72.jpg
p2793
aVhedge_74.jpg
p2794
aVhedge_75.jpg
p2795
aVhedge_77.jpg
p2796
aVhedge_8.jpg
p2797
aVhedge_81.jpg
p2798
aVhedge_82.jpg
p2799
aVhedge_83.jpg
p2800
aVhedge_86.jpg
p2801
aVhedge_88.jpg
p2802
aVhedge_91.jpg
p2803
aVhedge_94.jpg
p2804
aVhedge_96.jpg
p2805
aVhedge_97.jpg
p2806
aVhedge_99.jpg
p2807
aVhiking_0.jpg
p2808
aVhiking_10.jpg
p2809
aVhiking_100.jpg
p2810
aVhiking_101.jpg
p2811
aVhiking_103.jpg
p2812
aVhiking_106.jpg
p2813
aVhiking_108.jpg
p2814
aVhiking_11.jpg
p2815
aVhiking_110.jpg
p2816
aVhiking_112.jpg
p2817
aVhiking_114.jpg
p2818
aVhiking_116.jpg
p2819
aVhiking_117.jpg
p2820
aVhiking_119.jpg
p2821
aVhiking_12.jpg
p2822
aVhiking_120.jpg
p2823
aVhiking_122.jpg
p2824
aVhiking_123.jpg
p2825
aVhiking_124.jpg
p2826
aVhiking_125.jpg
p2827
aVhiking_126.jpg
p2828
aVhiking_128.jpeg
p2829
aVhiking_13.jpg
p2830
aVhiking_130.jpg
p2831
aVhiking_133.jpg
p2832
aVhiking_135.jpg
p2833
aVhiking_136.jpg
p2834
aVhiking_14.jpg
p2835
aVhiking_141.jpg
p2836
aVhiking_144.jpg
p2837
aVhiking_148.jpg
p2838
aVhiking_149.jpg
p2839
aVhiking_18.jpg
p2840
aVhiking_2.jpg
p2841
aVhiking_20.jpg
p2842
aVhiking_21.jpg
p2843
aVhiking_23.jpg
p2844
aVhiking_24.jpg
p2845
aVhiking_27.jpg
p2846
aVhiking_28.jpg
p2847
aVhiking_29.jpg
p2848
aVhiking_32.jpg
p2849
aVhiking_34.jpg
p2850
aVhiking_36.jpg
p2851
aVhiking_37.jpg
p2852
aVhiking_39.jpg
p2853
aVhiking_42.jpg
p2854
aVhiking_43.jpg
p2855
aVhiking_44.jpg
p2856
aVhiking_45.jpg
p2857
aVhiking_46.jpg
p2858
aVhiking_48.jpg
p2859
aVhiking_5.jpg
p2860
aVhiking_50.jpg
p2861
aVhiking_52.jpg
p2862
aVhiking_53.png
p2863
aVhiking_55.jpg
p2864
aVhiking_56.jpg
p2865
aVhiking_58.jpg
p2866
aVhiking_59.jpg
p2867
aVhiking_60.jpg
p2868
aVhiking_61.jpg
p2869
aVhiking_68.jpg
p2870
aVhiking_69.jpg
p2871
aVhiking_7.jpg
p2872
aVhiking_74.jpg
p2873
aVhiking_75.jpg
p2874
aVhiking_76.png
p2875
aVhiking_77.jpg
p2876
aVhiking_78.jpg
p2877
aVhiking_8.jpg
p2878
aVhiking_84.jpg
p2879
aVhiking_87.jpg
p2880
aVhiking_88.jpg
p2881
aVhiking_90.jpg
p2882
aVhiking_91.jpg
p2883
aVhiking_93.jpg
p2884
aVhiking_94.jpg
p2885
aVhiking_96.jpg
p2886
aVhiking_98.jpg
p2887
aVhill_0.jpg
p2888
aVhill_1.jpg
p2889
aVhill_100.jpg
p2890
aVhill_101.jpg
p2891
aVhill_103.jpg
p2892
aVhill_104.jpg
p2893
aVhill_105.jpg
p2894
aVhill_107.jpg
p2895
aVhill_108.jpg
p2896
aVhill_109.jpg
p2897
aVhill_111.jpg
p2898
aVhill_113.jpg
p2899
aVhill_114.jpg
p2900
aVhill_117.jpg
p2901
aVhill_118.jpg
p2902
aVhill_120.jpg
p2903
aVhill_122.jpg
p2904
aVhill_124.jpg
p2905
aVhill_125.jpg
p2906
aVhill_126.jpg
p2907
aVhill_129.jpg
p2908
aVhill_131.jpg
p2909
aVhill_132.jpg
p2910
aVhill_133.jpg
p2911
aVhill_134.jpg
p2912
aVhill_135.jpg
p2913
aVhill_136.jpg
p2914
aVhill_137.jpg
p2915
aVhill_138.jpg
p2916
aVhill_139.jpg
p2917
aVhill_14.jpg
p2918
aVhill_140.jpg
p2919
aVhill_145.jpg
p2920
aVhill_146.jpg
p2921
aVhill_148.jpg
p2922
aVhill_149.jpg
p2923
aVhill_15.jpg
p2924
aVhill_17.jpg
p2925
aVhill_19.jpg
p2926
aVhill_2.jpg
p2927
aVhill_21.jpg
p2928
aVhill_22.jpg
p2929
aVhill_23.jpg
p2930
aVhill_24.jpg
p2931
aVhill_26.jpg
p2932
aVhill_27.jpg
p2933
aVhill_29.jpg
p2934
aVhill_3.jpg
p2935
aVhill_30.jpg
p2936
aVhill_31.jpg
p2937
aVhill_35.jpg
p2938
aVhill_38.jpg
p2939
aVhill_39.jpg
p2940
aVhill_4.jpg
p2941
aVhill_40.jpg
p2942
aVhill_41.jpg
p2943
aVhill_42.jpg
p2944
aVhill_43.jpg
p2945
aVhill_45.jpg
p2946
aVhill_46.jpg
p2947
aVhill_47.png
p2948
aVhill_48.jpg
p2949
aVhill_49.jpg
p2950
aVhill_5.jpg
p2951
aVhill_50.jpg
p2952
aVhill_51.jpg
p2953
aVhill_52.jpg
p2954
aVhill_54.jpeg
p2955
aVhill_57.jpg
p2956
aVhill_58.jpg
p2957
aVhill_59.jpg
p2958
aVhill_6.jpg
p2959
aVhill_61.jpg
p2960
aVhill_62.jpg
p2961
aVhill_63.jpg
p2962
aVhill_64.jpg
p2963
aVhill_66.jpg
p2964
aVhill_67.jpg
p2965
aVhill_69.jpg
p2966
aVhill_7.jpg
p2967
aVhill_70.jpg
p2968
aVhill_71.jpg
p2969
aVhill_72.jpg
p2970
aVhill_73.jpg
p2971
aVhill_74.jpg
p2972
aVhill_75.jpg
p2973
aVhill_78.jpg
p2974
aVhill_8.jpg
p2975
aVhill_80.jpg
p2976
aVhill_81.jpg
p2977
aVhill_82.jpg
p2978
aVhill_84.jpg
p2979
aVhill_85.jpg
p2980
aVhill_86.png
p2981
aVhill_88.jpg
p2982
aVhill_89.jpg
p2983
aVhill_9.jpg
p2984
aVhill_90.jpg
p2985
aVhill_91.jpg
p2986
aVhill_93.jpg
p2987
aVhill_94.jpg
p2988
aVhill_95.jpg
p2989
aVhill_96.jpg
p2990
aVhill_97.jpg
p2991
aVhill_98.jpg
p2992
aVhorse_10.jpg
p2993
aVhorse_100.jpg
p2994
aVhorse_101.jpg
p2995
aVhorse_104.jpg
p2996
aVhorse_108.jpg
p2997
aVhorse_109.jpg
p2998
aVhorse_112.jpg
p2999
aVhorse_114.jpg
p3000
aVhorse_117.jpg
p3001
aVhorse_120.jpg
p3002
aVhorse_122.jpg
p3003
aVhorse_123.jpg
p3004
aVhorse_126.jpg
p3005
aVhorse_128.jpg
p3006
aVhorse_132.jpg
p3007
aVhorse_133.jpg
p3008
aVhorse_135.jpg
p3009
aVhorse_14.jpg
p3010
aVhorse_141.jpg
p3011
aVhorse_142.jpg
p3012
aVhorse_144.jpg
p3013
aVhorse_148.jpg
p3014
aVhorse_149.jpg
p3015
aVhorse_16.jpg
p3016
aVhorse_18.jpg
p3017
aVhorse_21.jpg
p3018
aVhorse_23.jpg
p3019
aVhorse_29.jpg
p3020
aVhorse_30.jpg
p3021
aVhorse_32.jpg
p3022
aVhorse_34.jpg
p3023
aVhorse_36.jpg
p3024
aVhorse_37.jpg
p3025
aVhorse_42.jpg
p3026
aVhorse_44.jpg
p3027
aVhorse_46.png
p3028
aVhorse_50.jpg
p3029
aVhorse_55.jpg
p3030
aVhorse_61.jpg
p3031
aVhorse_69.jpg
p3032
aVhorse_7.jpg
p3033
aVhorse_71.jpeg
p3034
aVhorse_76.jpg
p3035
aVhorse_8.jpg
p3036
aVhorse_80.jpg
p3037
aVhorse_84.jpg
p3038
aVhorse_85.jpg
p3039
aVhorse_90.jpg
p3040
aVhorse_91.jpg
p3041
aVhorse_92.jpg
p3042
aVhorse_93.jpg
p3043
aVhorse_96.png
p3044
aVhorse_98.jpg
p3045
aVhouse+cat_0.png
p3046
aVhouse+cat_100.jpg
p3047
aVhouse+cat_101.jpg
p3048
aVhouse+cat_104.jpg
p3049
aVhouse+cat_107.jpg
p3050
aVhouse+cat_108.jpg
p3051
aVhouse+cat_109.jpg
p3052
aVhouse+cat_11.jpg
p3053
aVhouse+cat_111.jpg
p3054
aVhouse+cat_114.jpg
p3055
aVhouse+cat_120.jpg
p3056
aVhouse+cat_122.jpg
p3057
aVhouse+cat_123.jpg
p3058
aVhouse+cat_126.jpg
p3059
aVhouse+cat_13.jpg
p3060
aVhouse+cat_130.jpg
p3061
aVhouse+cat_132.jpg
p3062
aVhouse+cat_133.jpg
p3063
aVhouse+cat_135.jpg
p3064
aVhouse+cat_136.jpg
p3065
aVhouse+cat_138.jpg
p3066
aVhouse+cat_140.jpg
p3067
aVhouse+cat_141.jpg
p3068
aVhouse+cat_142.jpg
p3069
aVhouse+cat_144.jpg
p3070
aVhouse+cat_146.jpg
p3071
aVhouse+cat_148.jpg
p3072
aVhouse+cat_149.jpg
p3073
aVhouse+cat_18.jpg
p3074
aVhouse+cat_20.jpg
p3075
aVhouse+cat_21.jpg
p3076
aVhouse+cat_23.jpg
p3077
aVhouse+cat_26.jpg
p3078
aVhouse+cat_28.jpg
p3079
aVhouse+cat_29.jpg
p3080
aVhouse+cat_30.jpg
p3081
aVhouse+cat_32.jpg
p3082
aVhouse+cat_36.jpg
p3083
aVhouse+cat_39.jpg
p3084
aVhouse+cat_4.jpg
p3085
aVhouse+cat_40.jpg
p3086
aVhouse+cat_46.jpg
p3087
aVhouse+cat_48.jpg
p3088
aVhouse+cat_5.jpg
p3089
aVhouse+cat_50.jpg
p3090
aVhouse+cat_56.jpg
p3091
aVhouse+cat_58.jpg
p3092
aVhouse+cat_59.jpg
p3093
aVhouse+cat_61.jpg
p3094
aVhouse+cat_62.jpg
p3095
aVhouse+cat_64.jpg
p3096
aVhouse+cat_68.jpg
p3097
aVhouse+cat_69.jpg
p3098
aVhouse+cat_7.jpeg
p3099
aVhouse+cat_72.jpg
p3100
aVhouse+cat_75.jpg
p3101
aVhouse+cat_76.jpg
p3102
aVhouse+cat_8.png
p3103
aVhouse+cat_80.jpg
p3104
aVhouse+cat_82.jpg
p3105
aVhouse+cat_84.jpg
p3106
aVhouse+cat_90.jpg
p3107
aVhouse+cat_92.jpg
p3108
aVhouse+cat_93.jpg
p3109
aVhouse+cat_96.jpg
p3110
aVhouse+cat_98.jpg
p3111
aVhubble_0.jpg
p3112
aVhubble_1.jpg
p3113
aVhubble_10.jpg
p3114
aVhubble_100.jpg
p3115
aVhubble_101.jpg
p3116
aVhubble_102.jpg
p3117
aVhubble_103.jpg
p3118
aVhubble_104.jpg
p3119
aVhubble_105.jpg
p3120
aVhubble_106.jpg
p3121
aVhubble_107.jpg
p3122
aVhubble_109.jpg
p3123
aVhubble_11.jpg
p3124
aVhubble_111.jpg
p3125
aVhubble_112.jpg
p3126
aVhubble_113.jpg
p3127
aVhubble_115.jpg
p3128
aVhubble_116.jpg
p3129
aVhubble_118.jpg
p3130
aVhubble_119.jpg
p3131
aVhubble_12.jpg
p3132
aVhubble_120.jpg
p3133
aVhubble_121.jpg
p3134
aVhubble_123.jpg
p3135
aVhubble_124.jpeg
p3136
aVhubble_125.jpg
p3137
aVhubble_127.jpg
p3138
aVhubble_129.jpg
p3139
aVhubble_13.jpg
p3140
aVhubble_130.jpg
p3141
aVhubble_131.jpg
p3142
aVhubble_133.jpg
p3143
aVhubble_135.jpg
p3144
aVhubble_136.jpg
p3145
aVhubble_137.jpg
p3146
aVhubble_138.jpg
p3147
aVhubble_140.jpg
p3148
aVhubble_141.jpg
p3149
aVhubble_142.jpg
p3150
aVhubble_146.jpg
p3151
aVhubble_147.jpg
p3152
aVhubble_148.jpg
p3153
aVhubble_16.jpg
p3154
aVhubble_18.jpg
p3155
aVhubble_19.jpg
p3156
aVhubble_2.jpg
p3157
aVhubble_20.jpg
p3158
aVhubble_21.jpg
p3159
aVhubble_22.jpg
p3160
aVhubble_23.jpeg
p3161
aVhubble_24.jpg
p3162
aVhubble_25.jpg
p3163
aVhubble_26.jpg
p3164
aVhubble_28.jpg
p3165
aVhubble_29.jpg
p3166
aVhubble_3.jpg
p3167
aVhubble_30.jpg
p3168
aVhubble_31.jpg
p3169
aVhubble_32.jpg
p3170
aVhubble_35.jpg
p3171
aVhubble_36.jpg
p3172
aVhubble_37.jpg
p3173
aVhubble_39.jpg
p3174
aVhubble_4.jpg
p3175
aVhubble_40.jpg
p3176
aVhubble_41.jpg
p3177
aVhubble_42.jpg
p3178
aVhubble_43.jpg
p3179
aVhubble_44.jpg
p3180
aVhubble_45.jpg
p3181
aVhubble_46.jpg
p3182
aVhubble_48.jpg
p3183
aVhubble_49.jpg
p3184
aVhubble_5.jpg
p3185
aVhubble_50.jpg
p3186
aVhubble_51.jpg
p3187
aVhubble_53.jpg
p3188
aVhubble_56.jpg
p3189
aVhubble_58.jpg
p3190
aVhubble_59.jpg
p3191
aVhubble_6.jpg
p3192
aVhubble_61.jpg
p3193
aVhubble_63.jpg
p3194
aVhubble_64.jpg
p3195
aVhubble_65.jpg
p3196
aVhubble_67.jpg
p3197
aVhubble_68.jpg
p3198
aVhubble_69.jpg
p3199
aVhubble_7.jpeg
p3200
aVhubble_72.jpg
p3201
aVhubble_73.jpg
p3202
aVhubble_74.jpg
p3203
aVhubble_75.jpg
p3204
aVhubble_76.jpg
p3205
aVhubble_77.jpg
p3206
aVhubble_79.jpg
p3207
aVhubble_81.jpeg
p3208
aVhubble_82.jpg
p3209
aVhubble_83.jpg
p3210
aVhubble_85.jpg
p3211
aVhubble_87.jpg
p3212
aVhubble_88.jpg
p3213
aVhubble_9.jpeg
p3214
aVhubble_91.jpg
p3215
aVhubble_92.jpg
p3216
aVhubble_93.jpg
p3217
aVhubble_95.jpg
p3218
aVhubble_96.jpg
p3219
aVhubble_97.jpg
p3220
aVhubble_98.jpg
p3221
aVhubble_99.jpg
p3222
aVimages_0.jpg
p3223
aVimages_10.jpg
p3224
aVimages_108.jpg
p3225
aVimages_11.jpg
p3226
aVimages_110.jpg
p3227
aVimages_116.jpeg
p3228
aVimages_117.jpg
p3229
aVimages_12.jpg
p3230
aVimages_120.jpg
p3231
aVimages_122.jpg
p3232
aVimages_123.jpg
p3233
aVimages_124.jpg
p3234
aVimages_125.jpg
p3235
aVimages_132.jpg
p3236
aVimages_133.jpg
p3237
aVimages_135.jpg
p3238
aVimages_138.jpg
p3239
aVimages_14.jpg
p3240
aVimages_140.jpg
p3241
aVimages_141.jpg
p3242
aVimages_142.jpg
p3243
aVimages_20.jpg
p3244
aVimages_23.jpg
p3245
aVimages_26.jpg
p3246
aVimages_27.jpg
p3247
aVimages_29.jpg
p3248
aVimages_30.jpg
p3249
aVimages_32.jpg
p3250
aVimages_34.jpg
p3251
aVimages_36.jpg
p3252
aVimages_40.jpg
p3253
aVimages_42.jpg
p3254
aVimages_46.jpg
p3255
aVimages_48.jpg
p3256
aVimages_55.jpg
p3257
aVimages_59.jpg
p3258
aVimages_60.png
p3259
aVimages_61.jpg
p3260
aVimages_64.png
p3261
aVimages_66.jpg
p3262
aVimages_69.jpg
p3263
aVimages_7.jpg
p3264
aVimages_71.jpg
p3265
aVimages_72.jpg
p3266
aVimages_74.jpg
p3267
aVimages_75.jpg
p3268
aVimages_8.jpg
p3269
aVimages_82.jpg
p3270
aVimages_84.jpg
p3271
aVimages_87.jpg
p3272
aVimages_88.jpg
p3273
aVimages_91.jpg
p3274
aVimages_92.jpg
p3275
aVimages_93.jpg
p3276
aVimages_94.jpg
p3277
aVimages_98.jpg
p3278
aVindian+musicians_1.jpg
p3279
aVindian+musicians_100.jpg
p3280
aVindian+musicians_104.jpg
p3281
aVindian+musicians_107.jpg
p3282
aVindian+musicians_108.jpg
p3283
aVindian+musicians_11.jpg
p3284
aVindian+musicians_110.jpg
p3285
aVindian+musicians_112.jpg
p3286
aVindian+musicians_116.jpg
p3287
aVindian+musicians_118.jpg
p3288
aVindian+musicians_12.jpg
p3289
aVindian+musicians_120.jpg
p3290
aVindian+musicians_123.jpg
p3291
aVindian+musicians_124.jpg
p3292
aVindian+musicians_127.jpg
p3293
aVindian+musicians_128.jpg
p3294
aVindian+musicians_129.jpg
p3295
aVindian+musicians_130.jpg
p3296
aVindian+musicians_132.jpg
p3297
aVindian+musicians_136.jpg
p3298
aVindian+musicians_137.jpg
p3299
aVindian+musicians_139.jpg
p3300
aVindian+musicians_14.jpg
p3301
aVindian+musicians_142.jpg
p3302
aVindian+musicians_144.jpg
p3303
aVindian+musicians_145.jpg
p3304
aVindian+musicians_148.jpg
p3305
aVindian+musicians_15.jpg
p3306
aVindian+musicians_18.jpg
p3307
aVindian+musicians_2.jpg
p3308
aVindian+musicians_20.jpg
p3309
aVindian+musicians_22.jpeg
p3310
aVindian+musicians_24.jpg
p3311
aVindian+musicians_25.jpg
p3312
aVindian+musicians_27.jpeg
p3313
aVindian+musicians_28.jpg
p3314
aVindian+musicians_30.jpg
p3315
aVindian+musicians_31.jpg
p3316
aVindian+musicians_32.jpg
p3317
aVindian+musicians_33.jpg
p3318
aVindian+musicians_34.jpg
p3319
aVindian+musicians_4.jpg
p3320
aVindian+musicians_40.jpg
p3321
aVindian+musicians_41.jpg
p3322
aVindian+musicians_43.jpg
p3323
aVindian+musicians_46.jpg
p3324
aVindian+musicians_47.jpg
p3325
aVindian+musicians_49.jpg
p3326
aVindian+musicians_52.jpg
p3327
aVindian+musicians_54.jpg
p3328
aVindian+musicians_56.jpg
p3329
aVindian+musicians_57.jpeg
p3330
aVindian+musicians_59.jpg
p3331
aVindian+musicians_6.jpg
p3332
aVindian+musicians_60.jpg
p3333
aVindian+musicians_63.jpg
p3334
aVindian+musicians_64.jpg
p3335
aVindian+musicians_65.jpg
p3336
aVindian+musicians_66.jpg
p3337
aVindian+musicians_68.jpg
p3338
aVindian+musicians_70.jpg
p3339
aVindian+musicians_75.jpg
p3340
aVindian+musicians_76.jpg
p3341
aVindian+musicians_78.jpg
p3342
aVindian+musicians_79.jpg
p3343
aVindian+musicians_81.jpg
p3344
aVindian+musicians_82.jpeg
p3345
aVindian+musicians_84.jpg
p3346
aVindian+musicians_86.jpg
p3347
aVindian+musicians_89.jpg
p3348
aVindian+musicians_9.jpg
p3349
aVindian+musicians_92.jpg
p3350
aVindian+musicians_94.jpg
p3351
aVindian+musicians_95.jpg
p3352
aVjaipur_1.jpg
p3353
aVjaipur_10.jpg
p3354
aVjaipur_102.jpg
p3355
aVjaipur_106.jpg
p3356
aVjaipur_109.jpg
p3357
aVjaipur_11.jpg
p3358
aVjaipur_112.jpg
p3359
aVjaipur_113.jpg
p3360
aVjaipur_115.jpg
p3361
aVjaipur_116.jpg
p3362
aVjaipur_118.jpg
p3363
aVjaipur_126.jpg
p3364
aVjaipur_128.jpg
p3365
aVjaipur_129.jpg
p3366
aVjaipur_13.jpg
p3367
aVjaipur_130.jpg
p3368
aVjaipur_131.jpg
p3369
aVjaipur_132.jpg
p3370
aVjaipur_139.jpg
p3371
aVjaipur_14.jpg
p3372
aVjaipur_142.jpg
p3373
aVjaipur_145.jpg
p3374
aVjaipur_148.jpg
p3375
aVjaipur_16.jpg
p3376
aVjaipur_17.jpg
p3377
aVjaipur_18.jpeg
p3378
aVjaipur_19.jpg
p3379
aVjaipur_2.jpg
p3380
aVjaipur_20.jpg
p3381
aVjaipur_22.jpg
p3382
aVjaipur_26.jpg
p3383
aVjaipur_27.jpg
p3384
aVjaipur_29.jpg
p3385
aVjaipur_3.jpg
p3386
aVjaipur_33.jpg
p3387
aVjaipur_42.jpg
p3388
aVjaipur_43.jpg
p3389
aVjaipur_45.jpg
p3390
aVjaipur_46.jpg
p3391
aVjaipur_48.jpg
p3392
aVjaipur_49.jpg
p3393
aVjaipur_50.jpg
p3394
aVjaipur_51.jpg
p3395
aVjaipur_52.jpg
p3396
aVjaipur_58.jpg
p3397
aVjaipur_59.jpg
p3398
aVjaipur_6.jpg
p3399
aVjaipur_61.jpg
p3400
aVjaipur_62.jpg
p3401
aVjaipur_65.jpg
p3402
aVjaipur_66.jpg
p3403
aVjaipur_70.jpg
p3404
aVjaipur_74.jpg
p3405
aVjaipur_75.jpg
p3406
aVjaipur_78.jpg
p3407
aVjaipur_80.jpg
p3408
aVjaipur_81.jpg
p3409
aVjaipur_82.jpg
p3410
aVjaipur_83.jpg
p3411
aVjaipur_84.jpg
p3412
aVjaipur_86.jpg
p3413
aVjaipur_90.jpg
p3414
aVjaipur_91.jpg
p3415
aVjaipur_93.jpg
p3416
aVjaipur_96.jpg
p3417
aVjaipur_97.jpg
p3418
aVjaipur_98.jpg
p3419
aVjaipur_99.jpg
p3420
aVjogging_0.jpg
p3421
aVjogging_10.jpg
p3422
aVjogging_100.jpg
p3423
aVjogging_101.jpg
p3424
aVjogging_104.jpg
p3425
aVjogging_109.jpg
p3426
aVjogging_11.jpg
p3427
aVjogging_110.jpg
p3428
aVjogging_112.jpg
p3429
aVjogging_114.jpg
p3430
aVjogging_116.jpg
p3431
aVjogging_117.jpg
p3432
aVjogging_119.jpg
p3433
aVjogging_12.jpg
p3434
aVjogging_120.jpg
p3435
aVjogging_122.jpg
p3436
aVjogging_123.jpg
p3437
aVjogging_124.jpg
p3438
aVjogging_125.jpg
p3439
aVjogging_128.jpg
p3440
aVjogging_13.jpg
p3441
aVjogging_130.jpg
p3442
aVjogging_135.jpg
p3443
aVjogging_136.jpg
p3444
aVjogging_14.jpg
p3445
aVjogging_140.jpg
p3446
aVjogging_149.jpg
p3447
aVjogging_16.jpg
p3448
aVjogging_18.jpg
p3449
aVjogging_20.jpg
p3450
aVjogging_21.jpg
p3451
aVjogging_23.jpg
p3452
aVjogging_24.jpg
p3453
aVjogging_26.jpg
p3454
aVjogging_27.jpeg
p3455
aVjogging_28.jpg
p3456
aVjogging_29.jpg
p3457
aVjogging_30.jpg
p3458
aVjogging_32.jpg
p3459
aVjogging_34.jpg
p3460
aVjogging_37.jpg
p3461
aVjogging_39.jpg
p3462
aVjogging_4.jpeg
p3463
aVjogging_40.jpg
p3464
aVjogging_42.jpg
p3465
aVjogging_43.jpg
p3466
aVjogging_45.jpg
p3467
aVjogging_5.jpg
p3468
aVjogging_50.jpg
p3469
aVjogging_53.jpg
p3470
aVjogging_55.jpg
p3471
aVjogging_58.jpg
p3472
aVjogging_59.jpg
p3473
aVjogging_60.jpg
p3474
aVjogging_62.jpg
p3475
aVjogging_64.jpg
p3476
aVjogging_68.jpeg
p3477
aVjogging_69.jpg
p3478
aVjogging_72.jpg
p3479
aVjogging_74.jpg
p3480
aVjogging_75.jpg
p3481
aVjogging_8.jpg
p3482
aVjogging_80.jpg
p3483
aVjogging_82.jpg
p3484
aVjogging_85.jpg
p3485
aVjogging_88.jpg
p3486
aVjogging_90.jpg
p3487
aVjogging_94.jpg
p3488
aVjogging_96.jpg
p3489
aVkathak_100.jpg
p3490
aVkathak_101.jpg
p3491
aVkathak_102.png
p3492
aVkathak_103.jpg
p3493
aVkathak_104.jpg
p3494
aVkathak_108.jpg
p3495
aVkathak_110.jpg
p3496
aVkathak_111.jpg
p3497
aVkathak_114.jpg
p3498
aVkathak_116.jpg
p3499
aVkathak_12.jpg
p3500
aVkathak_120.jpg
p3501
aVkathak_122.jpg
p3502
aVkathak_124.jpg
p3503
aVkathak_126.jpg
p3504
aVkathak_127.jpg
p3505
aVkathak_129.jpg
p3506
aVkathak_132.jpg
p3507
aVkathak_133.jpg
p3508
aVkathak_134.png
p3509
aVkathak_135.jpg
p3510
aVkathak_138.jpg
p3511
aVkathak_14.jpg
p3512
aVkathak_140.jpg
p3513
aVkathak_145.jpg
p3514
aVkathak_148.jpg
p3515
aVkathak_15.jpg
p3516
aVkathak_17.jpg
p3517
aVkathak_18.jpg
p3518
aVkathak_2.jpg
p3519
aVkathak_20.jpg
p3520
aVkathak_22.jpg
p3521
aVkathak_23.jpg
p3522
aVkathak_24.jpg
p3523
aVkathak_26.jpg
p3524
aVkathak_28.jpg
p3525
aVkathak_31.jpg
p3526
aVkathak_33.jpg
p3527
aVkathak_34.jpg
p3528
aVkathak_38.jpg
p3529
aVkathak_39.jpg
p3530
aVkathak_4.jpg
p3531
aVkathak_40.jpg
p3532
aVkathak_46.jpg
p3533
aVkathak_52.jpg
p3534
aVkathak_53.jpg
p3535
aVkathak_54.jpg
p3536
aVkathak_6.jpg
p3537
aVkathak_60.jpg
p3538
aVkathak_62.jpg
p3539
aVkathak_63.jpg
p3540
aVkathak_65.jpg
p3541
aVkathak_66.jpg
p3542
aVkathak_68.jpg
p3543
aVkathak_7.jpg
p3544
aVkathak_70.jpg
p3545
aVkathak_72.jpg
p3546
aVkathak_74.jpg
p3547
aVkathak_76.jpg
p3548
aVkathak_78.jpg
p3549
aVkathak_79.jpg
p3550
aVkathak_8.jpg
p3551
aVkathak_81.jpg
p3552
aVkathak_82.jpg
p3553
aVkathak_84.jpg
p3554
aVkathak_85.jpg
p3555
aVkathak_86.jpg
p3556
aVkathak_88.jpeg
p3557
aVkathak_90.jpg
p3558
aVkathmandu_1.jpg
p3559
aVkathmandu_10.jpg
p3560
aVkathmandu_100.jpg
p3561
aVkathmandu_102.jpg
p3562
aVkathmandu_107.jpg
p3563
aVkathmandu_109.jpg
p3564
aVkathmandu_110.jpg
p3565
aVkathmandu_114.jpg
p3566
aVkathmandu_123.jpg
p3567
aVkathmandu_126.jpg
p3568
aVkathmandu_128.jpg
p3569
aVkathmandu_131.jpg
p3570
aVkathmandu_139.jpg
p3571
aVkathmandu_14.jpg
p3572
aVkathmandu_141.jpg
p3573
aVkathmandu_144.jpg
p3574
aVkathmandu_147.jpg
p3575
aVkathmandu_148.jpg
p3576
aVkathmandu_18.jpg
p3577
aVkathmandu_19.jpg
p3578
aVkathmandu_20.jpg
p3579
aVkathmandu_21.jpg
p3580
aVkathmandu_22.jpg
p3581
aVkathmandu_27.jpg
p3582
aVkathmandu_30.jpg
p3583
aVkathmandu_32.jpg
p3584
aVkathmandu_33.jpg
p3585
aVkathmandu_34.jpg
p3586
aVkathmandu_35.jpg
p3587
aVkathmandu_4.jpg
p3588
aVkathmandu_40.jpg
p3589
aVkathmandu_42.jpg
p3590
aVkathmandu_45.jpg
p3591
aVkathmandu_48.jpg
p3592
aVkathmandu_50.jpg
p3593
aVkathmandu_51.jpg
p3594
aVkathmandu_53.jpg
p3595
aVkathmandu_54.jpg
p3596
aVkathmandu_56.jpg
p3597
aVkathmandu_58.jpg
p3598
aVkathmandu_6.jpg
p3599
aVkathmandu_61.jpg
p3600
aVkathmandu_65.jpg
p3601
aVkathmandu_68.jpg
p3602
aVkathmandu_69.jpg
p3603
aVkathmandu_72.jpg
p3604
aVkathmandu_75.jpg
p3605
aVkathmandu_77.jpg
p3606
aVkathmandu_78.jpg
p3607
aVkathmandu_82.jpg
p3608
aVkathmandu_85.jpg
p3609
aVkathmandu_88.jpg
p3610
aVkathmandu_90.jpg
p3611
aVkathmandu_91.jpg
p3612
aVkathmandu_93.jpg
p3613
aVkathmandu_97.jpg
p3614
aVkathmandu_99.jpg
p3615
aVkerala_0.jpg
p3616
aVkerala_1.jpg
p3617
aVkerala_10.jpg
p3618
aVkerala_100.jpg
p3619
aVkerala_103.jpg
p3620
aVkerala_105.jpg
p3621
aVkerala_106.jpg
p3622
aVkerala_107.jpg
p3623
aVkerala_108.jpg
p3624
aVkerala_109.jpg
p3625
aVkerala_11.jpg
p3626
aVkerala_110.jpg
p3627
aVkerala_111.jpg
p3628
aVkerala_112.jpg
p3629
aVkerala_113.jpg
p3630
aVkerala_115.jpg
p3631
aVkerala_116.jpg
p3632
aVkerala_117.jpg
p3633
aVkerala_12.jpg
p3634
aVkerala_121.jpg
p3635
aVkerala_122.jpg
p3636
aVkerala_123.jpg
p3637
aVkerala_124.jpg
p3638
aVkerala_125.jpg
p3639
aVkerala_126.jpg
p3640
aVkerala_127.jpg
p3641
aVkerala_128.jpg
p3642
aVkerala_129.jpg
p3643
aVkerala_13.jpg
p3644
aVkerala_131.jpg
p3645
aVkerala_134.jpg
p3646
aVkerala_135.jpg
p3647
aVkerala_136.jpg
p3648
aVkerala_14.jpg
p3649
aVkerala_140.jpg
p3650
aVkerala_141.jpg
p3651
aVkerala_142.jpg
p3652
aVkerala_144.jpg
p3653
aVkerala_145.jpg
p3654
aVkerala_147.jpg
p3655
aVkerala_148.jpg
p3656
aVkerala_149.jpg
p3657
aVkerala_15.jpg
p3658
aVkerala_16.jpg
p3659
aVkerala_17.jpg
p3660
aVkerala_20.jpg
p3661
aVkerala_21.jpg
p3662
aVkerala_22.jpg
p3663
aVkerala_23.jpg
p3664
aVkerala_25.jpg
p3665
aVkerala_26.jpg
p3666
aVkerala_27.jpg
p3667
aVkerala_28.jpg
p3668
aVkerala_29.jpg
p3669
aVkerala_3.jpg
p3670
aVkerala_30.jpg
p3671
aVkerala_32.jpg
p3672
aVkerala_33.jpg
p3673
aVkerala_35.jpg
p3674
aVkerala_36.jpg
p3675
aVkerala_37.jpg
p3676
aVkerala_38.jpg
p3677
aVkerala_39.jpeg
p3678
aVkerala_4.jpg
p3679
aVkerala_40.jpg
p3680
aVkerala_41.jpg
p3681
aVkerala_42.jpg
p3682
aVkerala_43.png
p3683
aVkerala_44.jpg
p3684
aVkerala_45.jpg
p3685
aVkerala_46.jpg
p3686
aVkerala_47.jpg
p3687
aVkerala_49.jpg
p3688
aVkerala_5.jpg
p3689
aVkerala_51.jpg
p3690
aVkerala_52.jpg
p3691
aVkerala_53.jpg
p3692
aVkerala_55.jpg
p3693
aVkerala_56.jpg
p3694
aVkerala_57.jpg
p3695
aVkerala_58.jpg
p3696
aVkerala_59.jpg
p3697
aVkerala_6.jpg
p3698
aVkerala_60.jpg
p3699
aVkerala_62.jpg
p3700
aVkerala_63.jpg
p3701
aVkerala_64.jpg
p3702
aVkerala_65.jpg
p3703
aVkerala_67.jpg
p3704
aVkerala_69.jpg
p3705
aVkerala_7.jpg
p3706
aVkerala_70.jpg
p3707
aVkerala_71.jpg
p3708
aVkerala_72.jpg
p3709
aVkerala_74.jpg
p3710
aVkerala_75.jpg
p3711
aVkerala_76.jpg
p3712
aVkerala_78.jpg
p3713
aVkerala_8.jpg
p3714
aVkerala_80.jpg
p3715
aVkerala_84.jpg
p3716
aVkerala_85.jpg
p3717
aVkerala_86.jpg
p3718
aVkerala_87.jpg
p3719
aVkerala_88.jpg
p3720
aVkerala_89.jpg
p3721
aVkerala_90.jpg
p3722
aVkerala_91.jpg
p3723
aVkerala_92.jpg
p3724
aVkerala_96.jpg
p3725
aVkite_1.jpg
p3726
aVkite_10.jpg
p3727
aVkite_100.jpg
p3728
aVkite_101.jpg
p3729
aVkite_102.jpg
p3730
aVkite_103.jpg
p3731
aVkite_104.jpg
p3732
aVkite_106.jpg
p3733
aVkite_108.jpg
p3734
aVkite_110.jpg
p3735
aVkite_111.jpg
p3736
aVkite_113.jpg
p3737
aVkite_114.jpg
p3738
aVkite_116.jpg
p3739
aVkite_117.jpg
p3740
aVkite_118.jpg
p3741
aVkite_119.jpg
p3742
aVkite_12.jpg
p3743
aVkite_124.jpg
p3744
aVkite_126.jpg
p3745
aVkite_127.jpg
p3746
aVkite_130.jpg
p3747
aVkite_132.jpg
p3748
aVkite_133.jpg
p3749
aVkite_134.jpg
p3750
aVkite_135.jpg
p3751
aVkite_136.jpg
p3752
aVkite_138.jpg
p3753
aVkite_14.jpg
p3754
aVkite_140.jpg
p3755
aVkite_143.jpg
p3756
aVkite_146.jpg
p3757
aVkite_148.jpg
p3758
aVkite_17.jpg
p3759
aVkite_18.jpg
p3760
aVkite_21.png
p3761
aVkite_22.jpg
p3762
aVkite_24.jpg
p3763
aVkite_26.jpg
p3764
aVkite_28.jpg
p3765
aVkite_30.jpg
p3766
aVkite_31.jpg
p3767
aVkite_33.jpg
p3768
aVkite_39.jpg
p3769
aVkite_40.jpg
p3770
aVkite_44.jpg
p3771
aVkite_46.jpg
p3772
aVkite_49.jpg
p3773
aVkite_5.jpg
p3774
aVkite_52.jpg
p3775
aVkite_53.jpg
p3776
aVkite_54.jpg
p3777
aVkite_55.jpg
p3778
aVkite_56.jpg
p3779
aVkite_6.jpg
p3780
aVkite_60.jpg
p3781
aVkite_62.jpg
p3782
aVkite_63.jpg
p3783
aVkite_65.jpg
p3784
aVkite_66.jpg
p3785
aVkite_69.jpg
p3786
aVkite_70.jpg
p3787
aVkite_72.jpg
p3788
aVkite_76.jpg
p3789
aVkite_78.jpg
p3790
aVkite_79.jpg
p3791
aVkite_8.jpg
p3792
aVkite_81.jpg
p3793
aVkite_82.jpg
p3794
aVkite_85.jpg
p3795
aVkite_86.jpg
p3796
aVkite_87.jpg
p3797
aVkite_88.jpg
p3798
aVkite_90.jpg
p3799
aVkite_95.jpg
p3800
aVkite_97.jpg
p3801
aVkite_98.jpg
p3802
aVkoala_0.jpg
p3803
aVkoala_10.jpg
p3804
aVkoala_102.jpg
p3805
aVkoala_107.jpg
p3806
aVkoala_108.jpg
p3807
aVkoala_11.jpg
p3808
aVkoala_117.jpg
p3809
aVkoala_118.jpg
p3810
aVkoala_12.jpg
p3811
aVkoala_121.jpg
p3812
aVkoala_123.jpg
p3813
aVkoala_124.jpg
p3814
aVkoala_128.jpg
p3815
aVkoala_130.jpg
p3816
aVkoala_134.jpg
p3817
aVkoala_14.jpg
p3818
aVkoala_144.jpg
p3819
aVkoala_147.jpg
p3820
aVkoala_16.jpg
p3821
aVkoala_18.jpg
p3822
aVkoala_19.jpeg
p3823
aVkoala_2.jpg
p3824
aVkoala_21.jpg
p3825
aVkoala_22.jpg
p3826
aVkoala_24.jpg
p3827
aVkoala_25.jpg
p3828
aVkoala_26.jpg
p3829
aVkoala_27.jpg
p3830
aVkoala_28.jpg
p3831
aVkoala_3.jpg
p3832
aVkoala_30.jpg
p3833
aVkoala_34.jpg
p3834
aVkoala_35.jpg
p3835
aVkoala_38.jpg
p3836
aVkoala_40.jpeg
p3837
aVkoala_41.jpg
p3838
aVkoala_42.jpg
p3839
aVkoala_43.jpg
p3840
aVkoala_44.jpg
p3841
aVkoala_48.jpg
p3842
aVkoala_50.jpg
p3843
aVkoala_51.jpg
p3844
aVkoala_53.jpg
p3845
aVkoala_54.jpg
p3846
aVkoala_56.jpg
p3847
aVkoala_57.jpg
p3848
aVkoala_58.jpg
p3849
aVkoala_59.jpg
p3850
aVkoala_6.jpg
p3851
aVkoala_64.jpg
p3852
aVkoala_67.jpg
p3853
aVkoala_70.jpg
p3854
aVkoala_72.jpg
p3855
aVkoala_73.jpg
p3856
aVkoala_76.jpg
p3857
aVkoala_78.jpg
p3858
aVkoala_8.jpg
p3859
aVkoala_80.jpg
p3860
aVkoala_83.jpg
p3861
aVkoala_85.jpg
p3862
aVkoala_89.jpg
p3863
aVkoala_9.jpg
p3864
aVkoala_90.jpg
p3865
aVkoala_94.jpg
p3866
aVkoala_98.jpg
p3867
aVkoala_99.jpg
p3868
aVleather_0.jpg
p3869
aVleather_10.jpg
p3870
aVleather_100.jpg
p3871
aVleather_102.jpg
p3872
aVleather_106.jpg
p3873
aVleather_108.jpg
p3874
aVleather_109.jpg
p3875
aVleather_111.jpg
p3876
aVleather_112.jpg
p3877
aVleather_115.jpg
p3878
aVleather_12.jpg
p3879
aVleather_120.jpg
p3880
aVleather_124.jpg
p3881
aVleather_125.jpg
p3882
aVleather_127.jpg
p3883
aVleather_128.jpg
p3884
aVleather_13.jpg
p3885
aVleather_134.jpg
p3886
aVleather_141.jpg
p3887
aVleather_143.jpg
p3888
aVleather_147.jpg
p3889
aVleather_148.jpg
p3890
aVleather_149.png
p3891
aVleather_15.jpg
p3892
aVleather_16.jpg
p3893
aVleather_18.jpg
p3894
aVleather_19.jpg
p3895
aVleather_2.jpg
p3896
aVleather_20.jpg
p3897
aVleather_21.jpg
p3898
aVleather_22.jpg
p3899
aVleather_26.jpg
p3900
aVleather_28.jpg
p3901
aVleather_29.jpg
p3902
aVleather_3.jpg
p3903
aVleather_31.jpg
p3904
aVleather_32.jpg
p3905
aVleather_34.jpg
p3906
aVleather_35.jpg
p3907
aVleather_36.jpg
p3908
aVleather_37.jpg
p3909
aVleather_38.jpg
p3910
aVleather_4.jpg
p3911
aVleather_40.jpg
p3912
aVleather_42.jpg
p3913
aVleather_45.jpg
p3914
aVleather_47.jpg
p3915
aVleather_48.jpg
p3916
aVleather_5.png
p3917
aVleather_51.jpg
p3918
aVleather_52.jpg
p3919
aVleather_53.jpg
p3920
aVleather_54.jpg
p3921
aVleather_6.jpg
p3922
aVleather_60.jpg
p3923
aVleather_61.jpg
p3924
aVleather_64.jpg
p3925
aVleather_67.jpg
p3926
aVleather_68.jpg
p3927
aVleather_69.jpg
p3928
aVleather_70.png
p3929
aVleather_72.jpg
p3930
aVleather_74.jpg
p3931
aVleather_77.jpg
p3932
aVleather_79.jpg
p3933
aVleather_8.jpg
p3934
aVleather_80.jpg
p3935
aVleather_82.jpg
p3936
aVleather_83.jpeg
p3937
aVleather_84.jpg
p3938
aVleather_85.jpg
p3939
aVleather_86.jpg
p3940
aVleather_88.jpg
p3941
aVleather_90.jpg
p3942
aVleather_92.jpg
p3943
aVleather_93.jpg
p3944
aVleather_95.jpg
p3945
aVleather_96.jpg
p3946
aVleather_98.jpg
p3947
aVleather_99.jpg
p3948
aVleopard_0.jpg
p3949
aVleopard_1.jpg
p3950
aVleopard_10.jpg
p3951
aVleopard_100.jpg
p3952
aVleopard_102.jpg
p3953
aVleopard_103.jpg
p3954
aVleopard_106.jpg
p3955
aVleopard_110.jpg
p3956
aVleopard_112.jpg
p3957
aVleopard_115.jpg
p3958
aVleopard_118.jpg
p3959
aVleopard_119.jpg
p3960
aVleopard_12.jpg
p3961
aVleopard_120.jpg
p3962
aVleopard_121.jpg
p3963
aVleopard_122.jpg
p3964
aVleopard_124.jpg
p3965
aVleopard_129.jpg
p3966
aVleopard_131.jpg
p3967
aVleopard_132.jpg
p3968
aVleopard_134.jpg
p3969
aVleopard_135.jpg
p3970
aVleopard_136.jpg
p3971
aVleopard_140.jpg
p3972
aVleopard_142.jpg
p3973
aVleopard_144.jpg
p3974
aVleopard_145.jpg
p3975
aVleopard_147.jpg
p3976
aVleopard_16.jpg
p3977
aVleopard_17.jpg
p3978
aVleopard_19.jpg
p3979
aVleopard_20.jpg
p3980
aVleopard_22.jpg
p3981
aVleopard_24.jpg
p3982
aVleopard_3.jpg
p3983
aVleopard_33.jpg
p3984
aVleopard_35.jpg
p3985
aVleopard_38.jpg
p3986
aVleopard_39.jpg
p3987
aVleopard_4.jpg
p3988
aVleopard_40.jpg
p3989
aVleopard_41.jpg
p3990
aVleopard_42.jpg
p3991
aVleopard_44.jpg
p3992
aVleopard_46.jpg
p3993
aVleopard_48.jpg
p3994
aVleopard_49.jpg
p3995
aVleopard_51.jpg
p3996
aVleopard_52.jpg
p3997
aVleopard_55.jpg
p3998
aVleopard_57.jpg
p3999
aVleopard_58.jpg
p4000
aVleopard_62.jpg
p4001
aVleopard_65.jpg
p4002
aVleopard_67.jpg
p4003
aVleopard_76.jpg
p4004
aVleopard_78.jpg
p4005
aVleopard_8.jpg
p4006
aVleopard_84.jpg
p4007
aVleopard_87.jpg
p4008
aVleopard_88.jpg
p4009
aVleopard_9.jpg
p4010
aVleopard_90.jpg
p4011
aVleopard_92.jpg
p4012
aVleopard_94.jpg
p4013
aVleopard_96.jpg
p4014
aVleopard_99.jpg
p4015
aVlion_0.jpg
p4016
aVlion_100.jpg
p4017
aVlion_103.jpg
p4018
aVlion_106.png
p4019
aVlion_108.jpg
p4020
aVlion_109.jpg
p4021
aVlion_116.jpg
p4022
aVlion_118.jpg
p4023
aVlion_119.jpg
p4024
aVlion_12.jpg
p4025
aVlion_122.jpg
p4026
aVlion_124.jpg
p4027
aVlion_125.jpg
p4028
aVlion_126.jpg
p4029
aVlion_128.jpg
p4030
aVlion_13.jpg
p4031
aVlion_132.jpg
p4032
aVlion_138.jpg
p4033
aVlion_141.jpg
p4034
aVlion_143.jpg
p4035
aVlion_146.jpg
p4036
aVlion_15.jpg
p4037
aVlion_16.jpg
p4038
aVlion_18.jpg
p4039
aVlion_20.jpg
p4040
aVlion_22.jpg
p4041
aVlion_25.jpg
p4042
aVlion_26.jpg
p4043
aVlion_28.jpg
p4044
aVlion_30.jpg
p4045
aVlion_31.jpg
p4046
aVlion_32.jpg
p4047
aVlion_34.jpg
p4048
aVlion_38.jpg
p4049
aVlion_4.jpg
p4050
aVlion_41.jpg
p4051
aVlion_44.jpg
p4052
aVlion_45.jpg
p4053
aVlion_47.jpg
p4054
aVlion_52.jpg
p4055
aVlion_54.jpeg
p4056
aVlion_55.jpg
p4057
aVlion_58.jpg
p4058
aVlion_6.jpg
p4059
aVlion_60.jpg
p4060
aVlion_61.jpg
p4061
aVlion_62.jpg
p4062
aVlion_70.jpg
p4063
aVlion_71.jpg
p4064
aVlion_74.jpg
p4065
aVlion_77.jpg
p4066
aVlion_78.jpg
p4067
aVlion_82.jpeg
p4068
aVlion_84.jpg
p4069
aVlion_86.jpg
p4070
aVlion_87.jpg
p4071
aVlion_89.jpg
p4072
aVlion_9.jpg
p4073
aVlion_93.jpg
p4074
aVlion_96.jpg
p4075
aVliving+room_101.jpg
p4076
aVliving+room_102.jpg
p4077
aVliving+room_106.jpg
p4078
aVliving+room_107.jpg
p4079
aVliving+room_108.jpg
p4080
aVliving+room_109.jpg
p4081
aVliving+room_11.jpg
p4082
aVliving+room_111.jpg
p4083
aVliving+room_112.jpg
p4084
aVliving+room_114.jpg
p4085
aVliving+room_115.jpg
p4086
aVliving+room_118.jpg
p4087
aVliving+room_119.jpg
p4088
aVliving+room_122.jpg
p4089
aVliving+room_123.jpg
p4090
aVliving+room_125.jpg
p4091
aVliving+room_127.jpg
p4092
aVliving+room_128.jpg
p4093
aVliving+room_130.jpg
p4094
aVliving+room_131.jpg
p4095
aVliving+room_132.jpg
p4096
aVliving+room_133.jpg
p4097
aVliving+room_134.jpg
p4098
aVliving+room_135.jpg
p4099
aVliving+room_140.jpg
p4100
aVliving+room_141.jpg
p4101
aVliving+room_144.jpg
p4102
aVliving+room_146.jpg
p4103
aVliving+room_147.jpg
p4104
aVliving+room_149.jpg
p4105
aVliving+room_16.jpg
p4106
aVliving+room_17.jpg
p4107
aVliving+room_18.jpg
p4108
aVliving+room_19.jpg
p4109
aVliving+room_22.jpg
p4110
aVliving+room_24.jpg
p4111
aVliving+room_25.jpg
p4112
aVliving+room_26.jpg
p4113
aVliving+room_27.jpg
p4114
aVliving+room_29.jpg
p4115
aVliving+room_3.jpg
p4116
aVliving+room_31.jpg
p4117
aVliving+room_32.jpg
p4118
aVliving+room_33.jpg
p4119
aVliving+room_34.jpg
p4120
aVliving+room_35.jpg
p4121
aVliving+room_36.jpg
p4122
aVliving+room_38.jpg
p4123
aVliving+room_39.jpg
p4124
aVliving+room_4.jpg
p4125
aVliving+room_40.jpg
p4126
aVliving+room_41.jpg
p4127
aVliving+room_42.jpg
p4128
aVliving+room_44.jpg
p4129
aVliving+room_45.jpg
p4130
aVliving+room_49.jpg
p4131
aVliving+room_50.jpg
p4132
aVliving+room_52.jpg
p4133
aVliving+room_53.jpg
p4134
aVliving+room_54.jpg
p4135
aVliving+room_58.jpg
p4136
aVliving+room_59.jpg
p4137
aVliving+room_6.jpg
p4138
aVliving+room_60.jpg
p4139
aVliving+room_61.jpg
p4140
aVliving+room_63.jpg
p4141
aVliving+room_64.jpg
p4142
aVliving+room_66.jpg
p4143
aVliving+room_67.jpg
p4144
aVliving+room_68.jpg
p4145
aVliving+room_69.jpg
p4146
aVliving+room_72.jpg
p4147
aVliving+room_75.jpg
p4148
aVliving+room_76.jpg
p4149
aVliving+room_77.jpg
p4150
aVliving+room_79.jpg
p4151
aVliving+room_8.jpg
p4152
aVliving+room_80.jpg
p4153
aVliving+room_82.jpg
p4154
aVliving+room_84.jpg
p4155
aVliving+room_85.jpeg
p4156
aVliving+room_86.jpg
p4157
aVliving+room_88.jpg
p4158
aVliving+room_89.jpg
p4159
aVliving+room_9.jpeg
p4160
aVliving+room_90.jpg
p4161
aVliving+room_91.jpg
p4162
aVliving+room_92.jpg
p4163
aVliving+room_93.jpg
p4164
aVliving+room_96.jpg
p4165
aVliving+room_98.jpg
p4166
aVlobby+hotel_0.jpg
p4167
aVlobby+hotel_1.jpg
p4168
aVlobby+hotel_102.png
p4169
aVlobby+hotel_105.jpg
p4170
aVlobby+hotel_111.jpg
p4171
aVlobby+hotel_112.jpg
p4172
aVlobby+hotel_113.jpg
p4173
aVlobby+hotel_114.jpg
p4174
aVlobby+hotel_12.jpg
p4175
aVlobby+hotel_120.jpg
p4176
aVlobby+hotel_121.jpg
p4177
aVlobby+hotel_127.png
p4178
aVlobby+hotel_130.jpg
p4179
aVlobby+hotel_137.jpg
p4180
aVlobby+hotel_139.jpg
p4181
aVlobby+hotel_140.jpg
p4182
aVlobby+hotel_142.jpg
p4183
aVlobby+hotel_146.jpg
p4184
aVlobby+hotel_148.jpg
p4185
aVlobby+hotel_18.jpg
p4186
aVlobby+hotel_22.jpg
p4187
aVlobby+hotel_24.jpg
p4188
aVlobby+hotel_25.jpg
p4189
aVlobby+hotel_28.jpg
p4190
aVlobby+hotel_31.jpg
p4191
aVlobby+hotel_32.jpg
p4192
aVlobby+hotel_34.jpg
p4193
aVlobby+hotel_36.jpg
p4194
aVlobby+hotel_38.jpg
p4195
aVlobby+hotel_4.jpg
p4196
aVlobby+hotel_41.jpg
p4197
aVlobby+hotel_43.jpg
p4198
aVlobby+hotel_47.jpg
p4199
aVlobby+hotel_48.jpg
p4200
aVlobby+hotel_50.jpg
p4201
aVlobby+hotel_52.jpg
p4202
aVlobby+hotel_56.jpg
p4203
aVlobby+hotel_57.jpg
p4204
aVlobby+hotel_59.jpg
p4205
aVlobby+hotel_60.jpg
p4206
aVlobby+hotel_63.jpg
p4207
aVlobby+hotel_66.jpg
p4208
aVlobby+hotel_68.jpg
p4209
aVlobby+hotel_73.jpg
p4210
aVlobby+hotel_75.jpg
p4211
aVlobby+hotel_76.jpeg
p4212
aVlobby+hotel_78.jpg
p4213
aVlobby+hotel_80.jpg
p4214
aVlobby+hotel_81.png
p4215
aVlobby+hotel_82.jpg
p4216
aVlobby+hotel_86.jpg
p4217
aVlobby+hotel_88.jpg
p4218
aVlobby+hotel_9.jpg
p4219
aVlobby+hotel_92.jpg
p4220
aVlobby+hotel_94.jpg
p4221
aVlobby+hotel_95.jpg
p4222
aVlobby+hotel_96.jpg
p4223
aVlobby+hotel_97.jpg
p4224
aVlobby+hotel_98.jpg
p4225
aVmaze_0.jpg
p4226
aVmaze_100.jpg
p4227
aVmaze_103.jpg
p4228
aVmaze_105.jpg
p4229
aVmaze_106.png
p4230
aVmaze_108.jpg
p4231
aVmaze_109.jpg
p4232
aVmaze_110.jpg
p4233
aVmaze_116.jpg
p4234
aVmaze_118.jpg
p4235
aVmaze_119.jpg
p4236
aVmaze_12.jpg
p4237
aVmaze_121.jpg
p4238
aVmaze_122.jpg
p4239
aVmaze_124.jpg
p4240
aVmaze_13.jpg
p4241
aVmaze_137.jpg
p4242
aVmaze_14.jpg
p4243
aVmaze_148.jpg
p4244
aVmaze_15.jpg
p4245
aVmaze_16.jpg
p4246
aVmaze_2.jpg
p4247
aVmaze_20.jpg
p4248
aVmaze_22.jpg
p4249
aVmaze_23.jpg
p4250
aVmaze_25.png
p4251
aVmaze_26.jpg
p4252
aVmaze_28.png
p4253
aVmaze_30.png
p4254
aVmaze_31.jpg
p4255
aVmaze_34.jpg
p4256
aVmaze_36.jpg
p4257
aVmaze_38.jpg
p4258
aVmaze_39.jpg
p4259
aVmaze_4.jpg
p4260
aVmaze_41.jpg
p4261
aVmaze_42.jpg
p4262
aVmaze_46.jpg
p4263
aVmaze_47.jpg
p4264
aVmaze_50.jpg
p4265
aVmaze_55.jpg
p4266
aVmaze_57.jpg
p4267
aVmaze_58.png
p4268
aVmaze_6.jpg
p4269
aVmaze_60.jpg
p4270
aVmaze_61.jpg
p4271
aVmaze_62.jpg
p4272
aVmaze_64.jpg
p4273
aVmaze_66.jpg
p4274
aVmaze_68.jpg
p4275
aVmaze_7.jpg
p4276
aVmaze_74.jpg
p4277
aVmaze_78.jpg
p4278
aVmaze_79.jpg
p4279
aVmaze_84.jpg
p4280
aVmaze_9.jpg
p4281
aVmaze_93.jpg
p4282
aVmaze_94.jpg
p4283
aVmaze_96.jpg
p4284
aVmesh_0.jpg
p4285
aVmesh_1.jpg
p4286
aVmesh_10.jpg
p4287
aVmesh_101.jpg
p4288
aVmesh_102.jpg
p4289
aVmesh_103.jpg
p4290
aVmesh_104.jpg
p4291
aVmesh_105.jpg
p4292
aVmesh_106.jpg
p4293
aVmesh_107.jpg
p4294
aVmesh_108.jpg
p4295
aVmesh_111.jpg
p4296
aVmesh_112.jpg
p4297
aVmesh_113.jpg
p4298
aVmesh_114.jpg
p4299
aVmesh_115.jpg
p4300
aVmesh_117.jpg
p4301
aVmesh_118.jpg
p4302
aVmesh_12.jpg
p4303
aVmesh_120.jpg
p4304
aVmesh_121.jpg
p4305
aVmesh_122.jpg
p4306
aVmesh_124.jpg
p4307
aVmesh_125.jpg
p4308
aVmesh_128.jpg
p4309
aVmesh_129.jpg
p4310
aVmesh_13.png
p4311
aVmesh_133.jpg
p4312
aVmesh_135.jpg
p4313
aVmesh_136.jpg
p4314
aVmesh_137.jpg
p4315
aVmesh_138.jpg
p4316
aVmesh_139.jpg
p4317
aVmesh_14.jpg
p4318
aVmesh_140.jpg
p4319
aVmesh_141.jpg
p4320
aVmesh_142.jpg
p4321
aVmesh_144.jpg
p4322
aVmesh_15.jpg
p4323
aVmesh_17.jpg
p4324
aVmesh_18.jpg
p4325
aVmesh_19.jpg
p4326
aVmesh_21.jpg
p4327
aVmesh_22.jpg
p4328
aVmesh_23.jpg
p4329
aVmesh_24.jpg
p4330
aVmesh_25.jpg
p4331
aVmesh_26.jpg
p4332
aVmesh_27.jpg
p4333
aVmesh_28.jpg
p4334
aVmesh_29.jpg
p4335
aVmesh_3.png
p4336
aVmesh_30.jpg
p4337
aVmesh_31.jpg
p4338
aVmesh_32.jpg
p4339
aVmesh_35.jpg
p4340
aVmesh_37.jpg
p4341
aVmesh_38.jpg
p4342
aVmesh_39.jpg
p4343
aVmesh_41.jpg
p4344
aVmesh_42.jpg
p4345
aVmesh_43.jpg
p4346
aVmesh_45.jpg
p4347
aVmesh_46.jpg
p4348
aVmesh_49.jpg
p4349
aVmesh_5.jpg
p4350
aVmesh_53.jpg
p4351
aVmesh_54.jpg
p4352
aVmesh_55.png
p4353
aVmesh_56.png
p4354
aVmesh_57.jpg
p4355
aVmesh_58.jpg
p4356
aVmesh_59.jpg
p4357
aVmesh_6.jpg
p4358
aVmesh_60.jpg
p4359
aVmesh_62.jpg
p4360
aVmesh_63.jpg
p4361
aVmesh_65.jpg
p4362
aVmesh_67.jpg
p4363
aVmesh_72.jpg
p4364
aVmesh_74.jpg
p4365
aVmesh_76.jpg
p4366
aVmesh_78.jpg
p4367
aVmesh_82.jpg
p4368
aVmesh_83.png
p4369
aVmesh_85.jpg
p4370
aVmesh_86.jpg
p4371
aVmesh_87.jpg
p4372
aVmesh_88.jpg
p4373
aVmesh_89.jpg
p4374
aVmesh_90.jpg
p4375
aVmesh_91.jpg
p4376
aVmesh_96.jpg
p4377
aVmonuments_0.jpg
p4378
aVmonuments_10.jpg
p4379
aVmonuments_101.jpg
p4380
aVmonuments_103.jpeg
p4381
aVmonuments_106.jpg
p4382
aVmonuments_108.jpg
p4383
aVmonuments_109.jpg
p4384
aVmonuments_11.jpg
p4385
aVmonuments_116.jpg
p4386
aVmonuments_119.jpg
p4387
aVmonuments_123.jpg
p4388
aVmonuments_124.jpg
p4389
aVmonuments_13.jpg
p4390
aVmonuments_133.jpg
p4391
aVmonuments_135.jpg
p4392
aVmonuments_138.jpeg
p4393
aVmonuments_142.jpg
p4394
aVmonuments_18.jpg
p4395
aVmonuments_20.jpeg
p4396
aVmonuments_23.jpg
p4397
aVmonuments_24.jpg
p4398
aVmonuments_26.jpg
p4399
aVmonuments_27.jpg
p4400
aVmonuments_28.jpg
p4401
aVmonuments_30.jpg
p4402
aVmonuments_32.jpg
p4403
aVmonuments_36.jpg
p4404
aVmonuments_37.jpg
p4405
aVmonuments_4.jpg
p4406
aVmonuments_40.jpg
p4407
aVmonuments_43.jpg
p4408
aVmonuments_45.jpg
p4409
aVmonuments_46.jpg
p4410
aVmonuments_48.jpg
p4411
aVmonuments_50.jpg
p4412
aVmonuments_53.jpg
p4413
aVmonuments_55.jpg
p4414
aVmonuments_58.jpg
p4415
aVmonuments_59.jpg
p4416
aVmonuments_60.jpeg
p4417
aVmonuments_61.jpg
p4418
aVmonuments_62.jpg
p4419
aVmonuments_64.jpg
p4420
aVmonuments_66.jpg
p4421
aVmonuments_68.jpg
p4422
aVmonuments_7.jpg
p4423
aVmonuments_71.jpg
p4424
aVmonuments_74.jpg
p4425
aVmonuments_76.jpg
p4426
aVmonuments_78.jpg
p4427
aVmonuments_8.jpg
p4428
aVmonuments_84.jpg
p4429
aVmonuments_85.jpg
p4430
aVmonuments_87.jpg
p4431
aVmonuments_88.png
p4432
aVmonuments_90.jpg
p4433
aVmonuments_92.jpg
p4434
aVmonuments_93.jpg
p4435
aVmonuments_96.jpg
p4436
aVmouth+of+a+river_10.jpg
p4437
aVmouth+of+a+river_104.jpg
p4438
aVmouth+of+a+river_108.jpg
p4439
aVmouth+of+a+river_111.jpg
p4440
aVmouth+of+a+river_112.jpg
p4441
aVmouth+of+a+river_114.jpg
p4442
aVmouth+of+a+river_116.jpg
p4443
aVmouth+of+a+river_118.jpg
p4444
aVmouth+of+a+river_12.jpg
p4445
aVmouth+of+a+river_120.jpg
p4446
aVmouth+of+a+river_124.jpg
p4447
aVmouth+of+a+river_125.jpg
p4448
aVmouth+of+a+river_127.jpg
p4449
aVmouth+of+a+river_132.jpg
p4450
aVmouth+of+a+river_133.jpg
p4451
aVmouth+of+a+river_134.jpg
p4452
aVmouth+of+a+river_136.jpg
p4453
aVmouth+of+a+river_140.jpg
p4454
aVmouth+of+a+river_143.jpg
p4455
aVmouth+of+a+river_146.jpg
p4456
aVmouth+of+a+river_147.jpg
p4457
aVmouth+of+a+river_148.jpg
p4458
aVmouth+of+a+river_149.jpg
p4459
aVmouth+of+a+river_15.jpg
p4460
aVmouth+of+a+river_16.jpg
p4461
aVmouth+of+a+river_18.jpg
p4462
aVmouth+of+a+river_2.jpg
p4463
aVmouth+of+a+river_20.jpg
p4464
aVmouth+of+a+river_22.jpg
p4465
aVmouth+of+a+river_26.jpg
p4466
aVmouth+of+a+river_29.jpg
p4467
aVmouth+of+a+river_3.jpg
p4468
aVmouth+of+a+river_31.jpg
p4469
aVmouth+of+a+river_35.jpg
p4470
aVmouth+of+a+river_36.jpg
p4471
aVmouth+of+a+river_37.jpg
p4472
aVmouth+of+a+river_38.jpg
p4473
aVmouth+of+a+river_4.jpg
p4474
aVmouth+of+a+river_40.png
p4475
aVmouth+of+a+river_48.jpg
p4476
aVmouth+of+a+river_5.jpg
p4477
aVmouth+of+a+river_50.jpg
p4478
aVmouth+of+a+river_51.jpg
p4479
aVmouth+of+a+river_54.jpg
p4480
aVmouth+of+a+river_58.jpg
p4481
aVmouth+of+a+river_60.jpg
p4482
aVmouth+of+a+river_64.jpg
p4483
aVmouth+of+a+river_68.jpg
p4484
aVmouth+of+a+river_77.jpg
p4485
aVmouth+of+a+river_8.jpg
p4486
aVmouth+of+a+river_80.jpg
p4487
aVmouth+of+a+river_83.jpg
p4488
aVmouth+of+a+river_84.jpg
p4489
aVmouth+of+a+river_85.jpg
p4490
aVmouth+of+a+river_88.jpg
p4491
aVmouth+of+a+river_95.jpg
p4492
aVmouth+of+a+river_96.jpg
p4493
aVmouth+of+a+river_98.jpg
p4494
aVmuseums+in+london_108.jpg
p4495
aVmuseums+in+london_111.jpg
p4496
aVmuseums+in+london_114.jpg
p4497
aVmuseums+in+london_119.jpg
p4498
aVmuseums+in+london_120.jpg
p4499
aVmuseums+in+london_121.jpg
p4500
aVmuseums+in+london_122.jpg
p4501
aVmuseums+in+london_124.jpg
p4502
aVmuseums+in+london_135.jpg
p4503
aVmuseums+in+london_136.jpg
p4504
aVmuseums+in+london_137.jpg
p4505
aVmuseums+in+london_14.jpg
p4506
aVmuseums+in+london_146.jpg
p4507
aVmuseums+in+london_148.jpg
p4508
aVmuseums+in+london_149.jpg
p4509
aVmuseums+in+london_2.jpg
p4510
aVmuseums+in+london_23.jpg
p4511
aVmuseums+in+london_25.jpg
p4512
aVmuseums+in+london_26.jpg
p4513
aVmuseums+in+london_28.jpg
p4514
aVmuseums+in+london_31.jpg
p4515
aVmuseums+in+london_38.jpg
p4516
aVmuseums+in+london_39.jpg
p4517
aVmuseums+in+london_4.jpg
p4518
aVmuseums+in+london_49.jpg
p4519
aVmuseums+in+london_50.jpg
p4520
aVmuseums+in+london_58.jpeg
p4521
aVmuseums+in+london_69.jpg
p4522
aVmuseums+in+london_78.jpg
p4523
aVmuseums+in+london_8.jpg
p4524
aVmuseums+in+london_86.jpg
p4525
aVmuseums+in+london_87.jpg
p4526
aVmuseums+in+london_89.jpg
p4527
aVmuseums+in+london_9.jpg
p4528
aVmuseums+in+london_95.jpg
p4529
aVmuseums+in+london_97.jpg
p4530
aVnet_0.jpg
p4531
aVnet_1.jpg
p4532
aVnet_103.jpg
p4533
aVnet_104.jpg
p4534
aVnet_105.jpg
p4535
aVnet_11.png
p4536
aVnet_110.jpg
p4537
aVnet_114.png
p4538
aVnet_115.jpg
p4539
aVnet_117.jpg
p4540
aVnet_119.jpg
p4541
aVnet_12.jpg
p4542
aVnet_125.jpg
p4543
aVnet_127.jpg
p4544
aVnet_128.jpg
p4545
aVnet_131.jpg
p4546
aVnet_132.jpg
p4547
aVnet_135.jpg
p4548
aVnet_137.png
p4549
aVnet_139.jpg
p4550
aVnet_143.jpg
p4551
aVnet_144.jpg
p4552
aVnet_15.jpg
p4553
aVnet_17.jpg
p4554
aVnet_18.jpg
p4555
aVnet_23.jpg
p4556
aVnet_27.jpg
p4557
aVnet_29.jpg
p4558
aVnet_30.jpg
p4559
aVnet_31.jpg
p4560
aVnet_32.jpg
p4561
aVnet_34.jpg
p4562
aVnet_35.jpg
p4563
aVnet_37.jpg
p4564
aVnet_38.jpg
p4565
aVnet_39.jpg
p4566
aVnet_4.jpg
p4567
aVnet_40.jpg
p4568
aVnet_41.jpg
p4569
aVnet_43.jpg
p4570
aVnet_48.jpg
p4571
aVnet_49.jpg
p4572
aVnet_5.jpg
p4573
aVnet_52.jpg
p4574
aVnet_53.jpg
p4575
aVnet_54.jpg
p4576
aVnet_56.jpg
p4577
aVnet_60.jpg
p4578
aVnet_61.jpg
p4579
aVnet_62.jpg
p4580
aVnet_63.jpg
p4581
aVnet_67.jpg
p4582
aVnet_7.jpg
p4583
aVnet_70.jpg
p4584
aVnet_71.jpg
p4585
aVnet_72.jpg
p4586
aVnet_73.jpg
p4587
aVnet_77.jpg
p4588
aVnet_79.jpg
p4589
aVnet_8.jpg
p4590
aVnet_83.jpg
p4591
aVnet_85.jpg
p4592
aVnet_86.jpg
p4593
aVnet_87.jpg
p4594
aVnet_88.jpg
p4595
aVnet_9.jpg
p4596
aVnet_94.jpg
p4597
aVnet_95.jpg
p4598
aVnet_96.jpg
p4599
aVnet_98.jpg
p4600
aVnewton_1.jpg
p4601
aVnewton_10.jpg
p4602
aVnewton_102.jpg
p4603
aVnewton_103.png
p4604
aVnewton_110.jpg
p4605
aVnewton_111.jpg
p4606
aVnewton_113.jpg
p4607
aVnewton_114.jpg
p4608
aVnewton_117.jpg
p4609
aVnewton_118.jpg
p4610
aVnewton_120.jpg
p4611
aVnewton_126.jpg
p4612
aVnewton_130.jpg
p4613
aVnewton_133.jpg
p4614
aVnewton_134.jpg
p4615
aVnewton_136.jpg
p4616
aVnewton_137.jpg
p4617
aVnewton_138.jpg
p4618
aVnewton_142.jpg
p4619
aVnewton_143.jpg
p4620
aVnewton_146.jpg
p4621
aVnewton_18.jpg
p4622
aVnewton_2.jpg
p4623
aVnewton_20.jpg
p4624
aVnewton_21.jpg
p4625
aVnewton_26.jpg
p4626
aVnewton_34.jpg
p4627
aVnewton_36.jpg
p4628
aVnewton_37.jpg
p4629
aVnewton_38.jpg
p4630
aVnewton_39.jpg
p4631
aVnewton_4.jpg
p4632
aVnewton_46.jpg
p4633
aVnewton_47.jpg
p4634
aVnewton_5.jpg
p4635
aVnewton_54.jpg
p4636
aVnewton_56.jpeg
p4637
aVnewton_57.jpeg
p4638
aVnewton_58.jpg
p4639
aVnewton_60.jpg
p4640
aVnewton_63.jpg
p4641
aVnewton_69.png
p4642
aVnewton_79.jpg
p4643
aVnewton_8.jpg
p4644
aVnewton_81.jpg
p4645
aVnewton_82.jpg
p4646
aVnewton_84.jpg
p4647
aVnewton_85.jpg
p4648
aVnewton_86.jpg
p4649
aVnewton_88.jpg
p4650
aVnewton_90.jpg
p4651
aVnewton_92.jpeg
p4652
aVnewton_94.jpg
p4653
aVnewton_97.jpg
p4654
aVnight_0.jpg
p4655
aVnight_1.jpg
p4656
aVnight_10.jpg
p4657
aVnight_100.jpg
p4658
aVnight_101.jpg
p4659
aVnight_102.jpg
p4660
aVnight_103.png
p4661
aVnight_104.jpg
p4662
aVnight_105.jpg
p4663
aVnight_106.png
p4664
aVnight_108.jpg
p4665
aVnight_109.jpg
p4666
aVnight_11.jpg
p4667
aVnight_110.jpg
p4668
aVnight_111.jpg
p4669
aVnight_112.jpg
p4670
aVnight_113.jpg
p4671
aVnight_115.jpg
p4672
aVnight_116.jpg
p4673
aVnight_117.jpg
p4674
aVnight_118.jpg
p4675
aVnight_119.jpg
p4676
aVnight_12.jpg
p4677
aVnight_120.jpg
p4678
aVnight_121.jpg
p4679
aVnight_123.jpg
p4680
aVnight_125.jpg
p4681
aVnight_126.jpg
p4682
aVnight_128.jpg
p4683
aVnight_129.jpg
p4684
aVnight_13.jpg
p4685
aVnight_131.jpg
p4686
aVnight_133.jpg
p4687
aVnight_134.jpg
p4688
aVnight_136.jpg
p4689
aVnight_137.jpg
p4690
aVnight_138.jpg
p4691
aVnight_139.jpg
p4692
aVnight_14.jpg
p4693
aVnight_140.jpg
p4694
aVnight_141.jpg
p4695
aVnight_145.jpg
p4696
aVnight_148.jpg
p4697
aVnight_149.jpg
p4698
aVnight_17.jpg
p4699
aVnight_20.jpg
p4700
aVnight_21.jpg
p4701
aVnight_22.jpg
p4702
aVnight_23.jpg
p4703
aVnight_24.jpg
p4704
aVnight_26.jpg
p4705
aVnight_3.jpg
p4706
aVnight_30.jpg
p4707
aVnight_32.jpg
p4708
aVnight_33.jpg
p4709
aVnight_36.jpg
p4710
aVnight_39.jpg
p4711
aVnight_4.jpeg
p4712
aVnight_42.jpg
p4713
aVnight_43.jpg
p4714
aVnight_45.png
p4715
aVnight_46.jpg
p4716
aVnight_47.jpg
p4717
aVnight_48.jpg
p4718
aVnight_49.jpg
p4719
aVnight_5.png
p4720
aVnight_53.jpg
p4721
aVnight_54.jpg
p4722
aVnight_55.jpg
p4723
aVnight_59.jpg
p4724
aVnight_6.jpg
p4725
aVnight_60.jpg
p4726
aVnight_62.jpg
p4727
aVnight_63.jpg
p4728
aVnight_64.jpg
p4729
aVnight_67.jpg
p4730
aVnight_68.jpg
p4731
aVnight_69.jpg
p4732
aVnight_7.jpg
p4733
aVnight_70.jpg
p4734
aVnight_71.jpg
p4735
aVnight_72.jpg
p4736
aVnight_73.jpg
p4737
aVnight_74.jpg
p4738
aVnight_78.jpg
p4739
aVnight_79.jpg
p4740
aVnight_8.jpg
p4741
aVnight_80.jpg
p4742
aVnight_81.jpg
p4743
aVnight_84.jpg
p4744
aVnight_87.jpg
p4745
aVnight_88.jpg
p4746
aVnight_89.jpg
p4747
aVnight_9.jpg
p4748
aVnight_90.jpeg
p4749
aVnight_91.jpg
p4750
aVnight_92.jpg
p4751
aVnight_94.jpg
p4752
aVnight_95.jpg
p4753
aVnight_96.jpg
p4754
aVnight_97.jpg
p4755
aVnight_99.jpg
p4756
aVnile_0.jpg
p4757
aVnile_10.jpg
p4758
aVnile_101.jpg
p4759
aVnile_104.jpg
p4760
aVnile_106.jpg
p4761
aVnile_107.jpg
p4762
aVnile_108.jpg
p4763
aVnile_109.jpg
p4764
aVnile_11.jpg
p4765
aVnile_110.jpg
p4766
aVnile_111.jpg
p4767
aVnile_114.jpeg
p4768
aVnile_116.jpg
p4769
aVnile_117.jpg
p4770
aVnile_12.jpg
p4771
aVnile_124.jpg
p4772
aVnile_125.jpg
p4773
aVnile_126.jpg
p4774
aVnile_128.jpg
p4775
aVnile_13.jpg
p4776
aVnile_130.jpg
p4777
aVnile_133.jpg
p4778
aVnile_138.jpg
p4779
aVnile_139.jpg
p4780
aVnile_14.jpg
p4781
aVnile_140.jpg
p4782
aVnile_141.jpg
p4783
aVnile_143.jpg
p4784
aVnile_144.jpg
p4785
aVnile_146.jpg
p4786
aVnile_15.jpg
p4787
aVnile_16.jpg
p4788
aVnile_18.jpg
p4789
aVnile_2.jpg
p4790
aVnile_20.jpg
p4791
aVnile_21.jpg
p4792
aVnile_23.jpg
p4793
aVnile_26.jpg
p4794
aVnile_27.jpg
p4795
aVnile_28.jpg
p4796
aVnile_29.jpg
p4797
aVnile_31.jpg
p4798
aVnile_34.jpg
p4799
aVnile_36.jpg
p4800
aVnile_37.jpg
p4801
aVnile_39.jpg
p4802
aVnile_4.jpg
p4803
aVnile_42.jpg
p4804
aVnile_43.jpg
p4805
aVnile_44.jpg
p4806
aVnile_45.jpg
p4807
aVnile_46.jpg
p4808
aVnile_47.jpg
p4809
aVnile_48.jpg
p4810
aVnile_5.jpg
p4811
aVnile_50.jpg
p4812
aVnile_52.jpg
p4813
aVnile_56.jpg
p4814
aVnile_60.jpg
p4815
aVnile_61.jpg
p4816
aVnile_62.jpg
p4817
aVnile_64.jpg
p4818
aVnile_66.jpg
p4819
aVnile_68.jpg
p4820
aVnile_71.png
p4821
aVnile_72.jpg
p4822
aVnile_77.jpg
p4823
aVnile_8.jpeg
p4824
aVnile_82.jpg
p4825
aVnile_87.jpg
p4826
aVnile_88.jpg
p4827
aVnile_94.jpg
p4828
aVnile_95.jpg
p4829
aVnile_96.jpg
p4830
aVnile_98.jpg
p4831
aVoxford_1.jpg
p4832
aVoxford_102.jpg
p4833
aVoxford_104.jpg
p4834
aVoxford_105.jpg
p4835
aVoxford_106.jpg
p4836
aVoxford_107.jpg
p4837
aVoxford_11.jpg
p4838
aVoxford_111.jpg
p4839
aVoxford_113.jpg
p4840
aVoxford_115.jpg
p4841
aVoxford_119.jpg
p4842
aVoxford_12.jpg
p4843
aVoxford_120.jpg
p4844
aVoxford_123.jpg
p4845
aVoxford_125.jpg
p4846
aVoxford_127.jpg
p4847
aVoxford_128.jpg
p4848
aVoxford_130.jpg
p4849
aVoxford_131.jpg
p4850
aVoxford_132.jpg
p4851
aVoxford_136.jpg
p4852
aVoxford_138.jpg
p4853
aVoxford_139.jpg
p4854
aVoxford_14.jpg
p4855
aVoxford_140.jpg
p4856
aVoxford_141.jpg
p4857
aVoxford_142.jpg
p4858
aVoxford_144.jpg
p4859
aVoxford_145.jpg
p4860
aVoxford_149.jpg
p4861
aVoxford_15.jpg
p4862
aVoxford_16.jpg
p4863
aVoxford_19.jpg
p4864
aVoxford_2.jpg
p4865
aVoxford_21.jpg
p4866
aVoxford_23.jpg
p4867
aVoxford_24.jpg
p4868
aVoxford_25.jpg
p4869
aVoxford_26.jpg
p4870
aVoxford_27.jpg
p4871
aVoxford_30.jpg
p4872
aVoxford_33.jpg
p4873
aVoxford_36.jpg
p4874
aVoxford_37.jpg
p4875
aVoxford_39.jpg
p4876
aVoxford_4.jpg
p4877
aVoxford_41.jpg
p4878
aVoxford_43.jpg
p4879
aVoxford_45.jpg
p4880
aVoxford_46.jpg
p4881
aVoxford_48.jpg
p4882
aVoxford_53.jpg
p4883
aVoxford_54.jpg
p4884
aVoxford_55.jpg
p4885
aVoxford_58.jpg
p4886
aVoxford_59.jpg
p4887
aVoxford_63.jpg
p4888
aVoxford_64.jpg
p4889
aVoxford_69.jpg
p4890
aVoxford_7.jpg
p4891
aVoxford_72.jpg
p4892
aVoxford_75.jpg
p4893
aVoxford_77.jpg
p4894
aVoxford_78.jpg
p4895
aVoxford_79.jpg
p4896
aVoxford_8.jpg
p4897
aVoxford_80.jpg
p4898
aVoxford_81.jpg
p4899
aVoxford_83.jpg
p4900
aVoxford_85.jpg
p4901
aVoxford_87.jpg
p4902
aVoxford_89.jpg
p4903
aVoxford_9.jpg
p4904
aVoxford_91.jpg
p4905
aVoxford_93.jpg
p4906
aVoxford_94.jpg
p4907
aVoxford_95.jpg
p4908
aVoxford_99.jpg
p4909
aVpark_0.jpg
p4910
aVpark_1.jpg
p4911
aVpark_10.jpg
p4912
aVpark_102.jpg
p4913
aVpark_103.jpg
p4914
aVpark_108.jpg
p4915
aVpark_110.jpg
p4916
aVpark_112.jpg
p4917
aVpark_113.jpg
p4918
aVpark_115.jpg
p4919
aVpark_116.jpg
p4920
aVpark_118.jpg
p4921
aVpark_119.jpg
p4922
aVpark_12.jpg
p4923
aVpark_121.jpg
p4924
aVpark_122.jpg
p4925
aVpark_124.jpg
p4926
aVpark_128.jpg
p4927
aVpark_131.jpg
p4928
aVpark_132.jpg
p4929
aVpark_134.jpg
p4930
aVpark_135.jpg
p4931
aVpark_136.jpg
p4932
aVpark_138.jpg
p4933
aVpark_14.jpg
p4934
aVpark_140.jpg
p4935
aVpark_142.jpg
p4936
aVpark_144.jpg
p4937
aVpark_145.jpg
p4938
aVpark_148.jpg
p4939
aVpark_16.jpg
p4940
aVpark_17.jpg
p4941
aVpark_19.jpg
p4942
aVpark_20.jpg
p4943
aVpark_22.jpg
p4944
aVpark_24.jpg
p4945
aVpark_25.jpg
p4946
aVpark_26.jpg
p4947
aVpark_28.jpg
p4948
aVpark_3.jpg
p4949
aVpark_32.jpg
p4950
aVpark_33.jpg
p4951
aVpark_36.jpg
p4952
aVpark_38.jpg
p4953
aVpark_39.jpg
p4954
aVpark_4.jpg
p4955
aVpark_40.jpg
p4956
aVpark_41.jpg
p4957
aVpark_42.jpg
p4958
aVpark_44.jpg
p4959
aVpark_46.jpg
p4960
aVpark_48.jpg
p4961
aVpark_49.jpg
p4962
aVpark_51.jpg
p4963
aVpark_52.jpg
p4964
aVpark_54.jpg
p4965
aVpark_55.jpg
p4966
aVpark_57.jpg
p4967
aVpark_58.jpg
p4968
aVpark_6.jpg
p4969
aVpark_62.jpg
p4970
aVpark_64.jpg
p4971
aVpark_65.jpg
p4972
aVpark_67.jpg
p4973
aVpark_68.jpg
p4974
aVpark_7.jpg
p4975
aVpark_70.jpg
p4976
aVpark_71.jpg
p4977
aVpark_72.jpg
p4978
aVpark_73.jpg
p4979
aVpark_76.jpg
p4980
aVpark_8.jpg
p4981
aVpark_80.jpg
p4982
aVpark_84.jpg
p4983
aVpark_87.jpg
p4984
aVpark_90.jpg
p4985
aVpark_92.jpg
p4986
aVpark_94.jpg
p4987
aVpark_97.jpg
p4988
aVpark_99.jpg
p4989
aVpeacock_0.jpg
p4990
aVpeacock_1.jpg
p4991
aVpeacock_10.jpg
p4992
aVpeacock_102.jpg
p4993
aVpeacock_107.jpg
p4994
aVpeacock_109.jpg
p4995
aVpeacock_11.jpg
p4996
aVpeacock_110.jpg
p4997
aVpeacock_112.jpg
p4998
aVpeacock_114.jpg
p4999
aVpeacock_115.jpg
p5000
aVpeacock_116.jpg
p5001
aVpeacock_118.jpg
p5002
aVpeacock_123.jpg
p5003
aVpeacock_125.jpg
p5004
aVpeacock_128.jpg
p5005
aVpeacock_129.jpg
p5006
aVpeacock_130.jpg
p5007
aVpeacock_131.jpg
p5008
aVpeacock_132.jpg
p5009
aVpeacock_134.jpg
p5010
aVpeacock_136.jpg
p5011
aVpeacock_138.jpg
p5012
aVpeacock_139.jpg
p5013
aVpeacock_141.jpg
p5014
aVpeacock_142.jpg
p5015
aVpeacock_144.jpg
p5016
aVpeacock_146.jpg
p5017
aVpeacock_147.jpg
p5018
aVpeacock_148.jpg
p5019
aVpeacock_16.jpg
p5020
aVpeacock_17.jpg
p5021
aVpeacock_18.jpg
p5022
aVpeacock_2.jpg
p5023
aVpeacock_24.jpg
p5024
aVpeacock_26.jpg
p5025
aVpeacock_27.jpg
p5026
aVpeacock_29.jpg
p5027
aVpeacock_3.jpg
p5028
aVpeacock_32.jpg
p5029
aVpeacock_33.jpg
p5030
aVpeacock_34.jpg
p5031
aVpeacock_35.jpg
p5032
aVpeacock_36.jpg
p5033
aVpeacock_38.jpeg
p5034
aVpeacock_4.jpg
p5035
aVpeacock_40.jpg
p5036
aVpeacock_42.jpg
p5037
aVpeacock_46.jpg
p5038
aVpeacock_50.jpg
p5039
aVpeacock_51.jpg
p5040
aVpeacock_58.jpg
p5041
aVpeacock_59.jpg
p5042
aVpeacock_6.jpg
p5043
aVpeacock_61.jpeg
p5044
aVpeacock_62.jpg
p5045
aVpeacock_64.jpg
p5046
aVpeacock_65.jpg
p5047
aVpeacock_66.jpeg
p5048
aVpeacock_68.jpg
p5049
aVpeacock_70.jpg
p5050
aVpeacock_74.jpg
p5051
aVpeacock_77.jpg
p5052
aVpeacock_78.jpg
p5053
aVpeacock_80.jpg
p5054
aVpeacock_82.jpg
p5055
aVpeacock_83.jpg
p5056
aVpeacock_84.jpg
p5057
aVpeacock_86.jpg
p5058
aVpeacock_91.jpg
p5059
aVpeacock_93.jpg
p5060
aVpeacock_94.jpg
p5061
aVpeacock_96.jpg
p5062
aVpeacock_98.jpg
p5063
aVpeacock_99.jpg
p5064
aVperson_0.jpg
p5065
aVperson_10.jpg
p5066
aVperson_100.jpg
p5067
aVperson_103.jpg
p5068
aVperson_105.jpg
p5069
aVperson_106.jpg
p5070
aVperson_110.jpg
p5071
aVperson_112.png
p5072
aVperson_114.jpg
p5073
aVperson_118.jpg
p5074
aVperson_119.jpeg
p5075
aVperson_12.jpg
p5076
aVperson_121.jpg
p5077
aVperson_122.jpg
p5078
aVperson_124.jpg
p5079
aVperson_125.jpg
p5080
aVperson_128.jpg
p5081
aVperson_13.jpg
p5082
aVperson_130.jpg
p5083
aVperson_138.jpg
p5084
aVperson_14.jpg
p5085
aVperson_140.jpg
p5086
aVperson_141.jpg
p5087
aVperson_142.jpg
p5088
aVperson_146.jpg
p5089
aVperson_148.jpg
p5090
aVperson_15.jpg
p5091
aVperson_16.jpg
p5092
aVperson_18.jpg
p5093
aVperson_2.png
p5094
aVperson_20.jpg
p5095
aVperson_22.jpg
p5096
aVperson_23.jpg
p5097
aVperson_25.jpg
p5098
aVperson_26.jpg
p5099
aVperson_29.jpg
p5100
aVperson_30.jpg
p5101
aVperson_32.jpg
p5102
aVperson_36.jpg
p5103
aVperson_38.jpg
p5104
aVperson_39.jpg
p5105
aVperson_41.jpg
p5106
aVperson_42.jpg
p5107
aVperson_46.jpg
p5108
aVperson_50.jpg
p5109
aVperson_54.jpg
p5110
aVperson_57.jpg
p5111
aVperson_58.jpg
p5112
aVperson_6.jpg
p5113
aVperson_61.jpg
p5114
aVperson_64.jpg
p5115
aVperson_66.jpg
p5116
aVperson_7.jpg
p5117
aVperson_71.jpg
p5118
aVperson_73.jpg
p5119
aVperson_74.jpg
p5120
aVperson_76.jpg
p5121
aVperson_77.jpg
p5122
aVperson_82.jpg
p5123
aVperson_84.jpg
p5124
aVperson_87.jpg
p5125
aVperson_89.jpg
p5126
aVperson_9.jpg
p5127
aVperson_92.jpg
p5128
aVperson_93.jpg
p5129
aVperson_94.jpg
p5130
aVperson_95.jpg
p5131
aVperson_96.jpg
p5132
aVperson_98.jpg
p5133
aVphotos_0.jpg
p5134
aVphotos_1.jpg
p5135
aVphotos_10.jpg
p5136
aVphotos_100.jpg
p5137
aVphotos_102.jpg
p5138
aVphotos_106.jpg
p5139
aVphotos_107.jpg
p5140
aVphotos_11.jpg
p5141
aVphotos_110.jpg
p5142
aVphotos_112.jpg
p5143
aVphotos_113.jpg
p5144
aVphotos_120.jpg
p5145
aVphotos_125.jpg
p5146
aVphotos_126.jpg
p5147
aVphotos_13.png
p5148
aVphotos_130.jpg
p5149
aVphotos_131.jpg
p5150
aVphotos_134.jpg
p5151
aVphotos_136.jpg
p5152
aVphotos_138.png
p5153
aVphotos_139.jpg
p5154
aVphotos_142.jpg
p5155
aVphotos_145.jpg
p5156
aVphotos_146.jpg
p5157
aVphotos_18.jpg
p5158
aVphotos_19.jpg
p5159
aVphotos_20.jpg
p5160
aVphotos_22.jpg
p5161
aVphotos_24.jpg
p5162
aVphotos_26.jpg
p5163
aVphotos_27.jpeg
p5164
aVphotos_29.jpg
p5165
aVphotos_30.jpg
p5166
aVphotos_32.jpg
p5167
aVphotos_34.jpg
p5168
aVphotos_4.jpg
p5169
aVphotos_42.jpg
p5170
aVphotos_43.jpg
p5171
aVphotos_46.jpg
p5172
aVphotos_48.jpg
p5173
aVphotos_50.jpg
p5174
aVphotos_51.jpg
p5175
aVphotos_56.jpg
p5176
aVphotos_58.jpg
p5177
aVphotos_6.jpg
p5178
aVphotos_62.jpg
p5179
aVphotos_65.jpg
p5180
aVphotos_66.jpg
p5181
aVphotos_67.jpg
p5182
aVphotos_70.jpg
p5183
aVphotos_75.jpg
p5184
aVphotos_77.jpg
p5185
aVphotos_8.jpg
p5186
aVphotos_81.jpg
p5187
aVphotos_82.jpg
p5188
aVphotos_84.jpg
p5189
aVphotos_86.jpg
p5190
aVphotos_88.jpg
p5191
aVphotos_94.jpg
p5192
aVphotos_96.jpg
p5193
aVphotos_98.jpg
p5194
aVphotos_99.jpg
p5195
aVplaces_100.png
p5196
aVplaces_104.jpg
p5197
aVplaces_106.jpg
p5198
aVplaces_109.jpg
p5199
aVplaces_110.jpg
p5200
aVplaces_112.jpg
p5201
aVplaces_114.jpg
p5202
aVplaces_115.jpg
p5203
aVplaces_118.jpg
p5204
aVplaces_123.jpg
p5205
aVplaces_125.jpg
p5206
aVplaces_128.jpg
p5207
aVplaces_129.jpg
p5208
aVplaces_13.jpg
p5209
aVplaces_130.jpg
p5210
aVplaces_131.jpg
p5211
aVplaces_132.jpg
p5212
aVplaces_134.jpg
p5213
aVplaces_136.jpg
p5214
aVplaces_138.jpg
p5215
aVplaces_14.jpg
p5216
aVplaces_142.jpg
p5217
aVplaces_145.jpg
p5218
aVplaces_146.jpg
p5219
aVplaces_147.jpg
p5220
aVplaces_148.jpg
p5221
aVplaces_16.jpg
p5222
aVplaces_17.jpg
p5223
aVplaces_18.jpg
p5224
aVplaces_2.jpg
p5225
aVplaces_22.jpg
p5226
aVplaces_26.jpg
p5227
aVplaces_3.jpeg
p5228
aVplaces_30.jpg
p5229
aVplaces_33.jpg
p5230
aVplaces_34.jpg
p5231
aVplaces_35.jpg
p5232
aVplaces_36.jpg
p5233
aVplaces_4.jpg
p5234
aVplaces_42.jpg
p5235
aVplaces_43.jpg
p5236
aVplaces_45.jpg
p5237
aVplaces_50.jpg
p5238
aVplaces_51.jpg
p5239
aVplaces_52.jpg
p5240
aVplaces_54.jpg
p5241
aVplaces_56.jpg
p5242
aVplaces_58.jpg
p5243
aVplaces_6.jpg
p5244
aVplaces_62.jpg
p5245
aVplaces_64.jpg
p5246
aVplaces_68.jpg
p5247
aVplaces_70.jpg
p5248
aVplaces_72.jpg
p5249
aVplaces_75.jpg
p5250
aVplaces_77.jpg
p5251
aVplaces_78.jpg
p5252
aVplaces_8.jpg
p5253
aVplaces_80.jpg
p5254
aVplaces_82.jpeg
p5255
aVplaces_83.jpg
p5256
aVplaces_84.jpg
p5257
aVplaces_86.jpg
p5258
aVplaces_88.jpg
p5259
aVplaces_90.jpg
p5260
aVplaces_91.jpg
p5261
aVplaces_93.jpg
p5262
aVplaces_94.jpg
p5263
aVplaces_96.jpg
p5264
aVplaces_99.jpg
p5265
aVplanet_0.png
p5266
aVplanet_1.jpg
p5267
aVplanet_10.jpg
p5268
aVplanet_100.png
p5269
aVplanet_101.jpg
p5270
aVplanet_102.jpg
p5271
aVplanet_103.jpg
p5272
aVplanet_104.jpg
p5273
aVplanet_106.jpg
p5274
aVplanet_109.jpg
p5275
aVplanet_110.jpg
p5276
aVplanet_111.jpg
p5277
aVplanet_112.png
p5278
aVplanet_113.jpg
p5279
aVplanet_114.jpg
p5280
aVplanet_115.jpg
p5281
aVplanet_116.jpg
p5282
aVplanet_117.jpg
p5283
aVplanet_118.jpg
p5284
aVplanet_119.jpg
p5285
aVplanet_120.jpg
p5286
aVplanet_121.jpg
p5287
aVplanet_122.jpg
p5288
aVplanet_123.jpg
p5289
aVplanet_125.png
p5290
aVplanet_127.jpg
p5291
aVplanet_128.jpg
p5292
aVplanet_129.jpg
p5293
aVplanet_13.jpg
p5294
aVplanet_130.jpg
p5295
aVplanet_132.jpg
p5296
aVplanet_134.jpg
p5297
aVplanet_135.png
p5298
aVplanet_136.jpg
p5299
aVplanet_137.jpg
p5300
aVplanet_138.jpg
p5301
aVplanet_139.jpg
p5302
aVplanet_141.png
p5303
aVplanet_142.png
p5304
aVplanet_143.jpg
p5305
aVplanet_144.png
p5306
aVplanet_145.jpg
p5307
aVplanet_146.jpg
p5308
aVplanet_147.jpg
p5309
aVplanet_148.jpg
p5310
aVplanet_149.jpg
p5311
aVplanet_15.jpg
p5312
aVplanet_16.jpg
p5313
aVplanet_17.jpg
p5314
aVplanet_18.jpg
p5315
aVplanet_19.jpg
p5316
aVplanet_20.jpg
p5317
aVplanet_21.jpg
p5318
aVplanet_22.jpg
p5319
aVplanet_23.jpg
p5320
aVplanet_24.jpg
p5321
aVplanet_26.jpg
p5322
aVplanet_27.jpg
p5323
aVplanet_29.jpg
p5324
aVplanet_3.jpg
p5325
aVplanet_30.jpg
p5326
aVplanet_31.jpg
p5327
aVplanet_32.jpg
p5328
aVplanet_33.jpg
p5329
aVplanet_34.png
p5330
aVplanet_37.jpg
p5331
aVplanet_38.jpg
p5332
aVplanet_4.jpg
p5333
aVplanet_42.jpg
p5334
aVplanet_45.jpg
p5335
aVplanet_46.jpg
p5336
aVplanet_47.jpg
p5337
aVplanet_48.jpg
p5338
aVplanet_49.png
p5339
aVplanet_5.jpg
p5340
aVplanet_51.jpg
p5341
aVplanet_52.jpg
p5342
aVplanet_53.jpg
p5343
aVplanet_55.jpg
p5344
aVplanet_56.jpg
p5345
aVplanet_57.jpg
p5346
aVplanet_58.jpg
p5347
aVplanet_6.jpg
p5348
aVplanet_61.jpg
p5349
aVplanet_62.jpg
p5350
aVplanet_65.jpg
p5351
aVplanet_67.jpg
p5352
aVplanet_68.jpg
p5353
aVplanet_69.jpg
p5354
aVplanet_70.jpg
p5355
aVplanet_71.jpg
p5356
aVplanet_72.jpg
p5357
aVplanet_73.jpg
p5358
aVplanet_77.jpg
p5359
aVplanet_78.jpg
p5360
aVplanet_79.jpg
p5361
aVplanet_80.jpg
p5362
aVplanet_82.png
p5363
aVplanet_84.jpg
p5364
aVplanet_85.jpg
p5365
aVplanet_86.jpg
p5366
aVplanet_87.jpg
p5367
aVplanet_88.jpg
p5368
aVplanet_89.jpg
p5369
aVplanet_9.jpg
p5370
aVplanet_93.png
p5371
aVplanet_97.jpg
p5372
aVplanet_99.jpg
p5373
aVpottery_0.jpg
p5374
aVpottery_10.jpg
p5375
aVpottery_100.jpg
p5376
aVpottery_102.jpg
p5377
aVpottery_103.jpg
p5378
aVpottery_106.jpg
p5379
aVpottery_108.jpg
p5380
aVpottery_109.jpg
p5381
aVpottery_110.jpg
p5382
aVpottery_111.jpg
p5383
aVpottery_112.jpg
p5384
aVpottery_114.jpg
p5385
aVpottery_118.jpg
p5386
aVpottery_119.jpg
p5387
aVpottery_12.jpg
p5388
aVpottery_121.jpg
p5389
aVpottery_122.jpg
p5390
aVpottery_124.jpg
p5391
aVpottery_125.jpg
p5392
aVpottery_126.jpg
p5393
aVpottery_128.png
p5394
aVpottery_13.jpg
p5395
aVpottery_130.jpg
p5396
aVpottery_132.jpg
p5397
aVpottery_135.jpg
p5398
aVpottery_138.jpg
p5399
aVpottery_14.jpg
p5400
aVpottery_141.jpg
p5401
aVpottery_143.jpg
p5402
aVpottery_146.jpg
p5403
aVpottery_15.jpg
p5404
aVpottery_16.jpg
p5405
aVpottery_2.jpg
p5406
aVpottery_23.jpg
p5407
aVpottery_25.jpg
p5408
aVpottery_28.jpg
p5409
aVpottery_29.jpg
p5410
aVpottery_30.jpg
p5411
aVpottery_31.jpg
p5412
aVpottery_32.jpg
p5413
aVpottery_38.jpg
p5414
aVpottery_39.jpg
p5415
aVpottery_4.jpg
p5416
aVpottery_41.jpg
p5417
aVpottery_44.jpg
p5418
aVpottery_45.jpg
p5419
aVpottery_50.jpg
p5420
aVpottery_52.jpg
p5421
aVpottery_54.jpg
p5422
aVpottery_55.jpg
p5423
aVpottery_58.jpg
p5424
aVpottery_6.jpg
p5425
aVpottery_60.jpg
p5426
aVpottery_61.jpg
p5427
aVpottery_62.jpg
p5428
aVpottery_63.jpg
p5429
aVpottery_64.jpg
p5430
aVpottery_68.jpg
p5431
aVpottery_7.jpg
p5432
aVpottery_70.jpg
p5433
aVpottery_71.jpg
p5434
aVpottery_73.jpg
p5435
aVpottery_74.jpg
p5436
aVpottery_76.jpg
p5437
aVpottery_77.jpg
p5438
aVpottery_79.jpg
p5439
aVpottery_80.jpg
p5440
aVpottery_82.jpg
p5441
aVpottery_86.jpg
p5442
aVpottery_87.jpg
p5443
aVpottery_9.jpg
p5444
aVpottery_90.jpg
p5445
aVpottery_92.jpg
p5446
aVpottery_93.jpg
p5447
aVpottery_94.jpg
p5448
aVpottery_95.jpg
p5449
aVpottery_98.jpg
p5450
aVpunting_0.jpg
p5451
aVpunting_1.jpg
p5452
aVpunting_10.jpg
p5453
aVpunting_100.jpg
p5454
aVpunting_102.jpg
p5455
aVpunting_104.jpg
p5456
aVpunting_106.jpg
p5457
aVpunting_107.jpg
p5458
aVpunting_109.jpg
p5459
aVpunting_11.jpg
p5460
aVpunting_110.jpg
p5461
aVpunting_113.jpg
p5462
aVpunting_114.jpg
p5463
aVpunting_115.jpg
p5464
aVpunting_116.jpg
p5465
aVpunting_118.jpg
p5466
aVpunting_120.jpg
p5467
aVpunting_122.jpg
p5468
aVpunting_123.jpg
p5469
aVpunting_125.jpg
p5470
aVpunting_126.jpg
p5471
aVpunting_128.jpeg
p5472
aVpunting_129.jpg
p5473
aVpunting_130.png
p5474
aVpunting_131.jpg
p5475
aVpunting_132.jpg
p5476
aVpunting_134.jpg
p5477
aVpunting_136.jpg
p5478
aVpunting_138.jpg
p5479
aVpunting_139.jpg
p5480
aVpunting_142.jpg
p5481
aVpunting_144.jpg
p5482
aVpunting_145.jpg
p5483
aVpunting_146.jpg
p5484
aVpunting_147.jpg
p5485
aVpunting_148.jpg
p5486
aVpunting_17.jpg
p5487
aVpunting_19.jpg
p5488
aVpunting_2.jpg
p5489
aVpunting_20.jpg
p5490
aVpunting_24.jpg
p5491
aVpunting_26.jpg
p5492
aVpunting_27.jpg
p5493
aVpunting_29.jpg
p5494
aVpunting_3.jpg
p5495
aVpunting_30.jpg
p5496
aVpunting_32.jpg
p5497
aVpunting_34.jpg
p5498
aVpunting_36.jpg
p5499
aVpunting_38.jpg
p5500
aVpunting_4.jpg
p5501
aVpunting_40.jpg
p5502
aVpunting_42.jpg
p5503
aVpunting_43.jpg
p5504
aVpunting_45.jpeg
p5505
aVpunting_48.jpg
p5506
aVpunting_49.jpg
p5507
aVpunting_50.jpg
p5508
aVpunting_51.jpg
p5509
aVpunting_52.jpg
p5510
aVpunting_59.jpg
p5511
aVpunting_6.jpg
p5512
aVpunting_61.jpeg
p5513
aVpunting_64.jpg
p5514
aVpunting_65.jpg
p5515
aVpunting_68.jpg
p5516
aVpunting_74.jpg
p5517
aVpunting_75.jpg
p5518
aVpunting_80.jpg
p5519
aVpunting_81.jpg
p5520
aVpunting_82.png
p5521
aVpunting_83.jpg
p5522
aVpunting_86.jpg
p5523
aVpunting_88.jpg
p5524
aVpunting_91.png
p5525
aVpunting_94.jpg
p5526
aVpunting_96.jpg
p5527
aVpunting_98.jpg
p5528
aVpunting_99.jpg
p5529
aVrain_101.jpg
p5530
aVrain_102.jpg
p5531
aVrain_115.jpg
p5532
aVrain_117.jpg
p5533
aVrain_12.jpg
p5534
aVrain_120.jpg
p5535
aVrain_123.jpg
p5536
aVrain_125.jpg
p5537
aVrain_126.jpg
p5538
aVrain_128.jpg
p5539
aVrain_13.jpg
p5540
aVrain_133.jpg
p5541
aVrain_134.jpg
p5542
aVrain_136.jpg
p5543
aVrain_137.jpg
p5544
aVrain_138.jpg
p5545
aVrain_139.jpg
p5546
aVrain_14.jpg
p5547
aVrain_141.jpg
p5548
aVrain_142.jpg
p5549
aVrain_144.jpg
p5550
aVrain_146.jpg
p5551
aVrain_149.jpg
p5552
aVrain_16.jpg
p5553
aVrain_19.jpg
p5554
aVrain_2.jpg
p5555
aVrain_21.jpg
p5556
aVrain_24.jpg
p5557
aVrain_25.jpg
p5558
aVrain_26.jpg
p5559
aVrain_27.jpg
p5560
aVrain_29.jpg
p5561
aVrain_3.jpg
p5562
aVrain_30.jpg
p5563
aVrain_32.jpg
p5564
aVrain_34.jpg
p5565
aVrain_35.jpg
p5566
aVrain_37.jpg
p5567
aVrain_40.jpg
p5568
aVrain_41.jpg
p5569
aVrain_45.jpg
p5570
aVrain_46.jpg
p5571
aVrain_53.jpg
p5572
aVrain_6.jpg
p5573
aVrain_60.png
p5574
aVrain_61.jpg
p5575
aVrain_64.jpg
p5576
aVrain_70.jpg
p5577
aVrain_72.jpg
p5578
aVrain_73.jpg
p5579
aVrain_74.jpg
p5580
aVrain_75.jpg
p5581
aVrain_76.jpg
p5582
aVrain_77.jpg
p5583
aVrain_78.jpg
p5584
aVrain_8.jpg
p5585
aVrain_80.jpg
p5586
aVrain_82.jpg
p5587
aVrain_85.jpg
p5588
aVrain_89.jpg
p5589
aVrain_90.jpg
p5590
aVrain_91.jpg
p5591
aVrain_92.jpg
p5592
aVrain_93.jpg
p5593
aVrain_94.jpg
p5594
aVrain_96.jpg
p5595
aVrain_98.jpg
p5596
aVrain_99.jpg
p5597
aVrajasthan_0.jpg
p5598
aVrajasthan_1.jpg
p5599
aVrajasthan_10.jpg
p5600
aVrajasthan_100.jpg
p5601
aVrajasthan_101.jpg
p5602
aVrajasthan_102.jpg
p5603
aVrajasthan_103.jpg
p5604
aVrajasthan_105.jpg
p5605
aVrajasthan_106.jpg
p5606
aVrajasthan_107.jpg
p5607
aVrajasthan_109.jpg
p5608
aVrajasthan_11.jpg
p5609
aVrajasthan_110.jpg
p5610
aVrajasthan_112.jpg
p5611
aVrajasthan_113.jpg
p5612
aVrajasthan_115.jpg
p5613
aVrajasthan_116.jpg
p5614
aVrajasthan_117.jpg
p5615
aVrajasthan_118.jpg
p5616
aVrajasthan_119.jpg
p5617
aVrajasthan_12.jpg
p5618
aVrajasthan_123.jpg
p5619
aVrajasthan_124.jpg
p5620
aVrajasthan_125.jpg
p5621
aVrajasthan_126.jpg
p5622
aVrajasthan_127.jpg
p5623
aVrajasthan_128.jpg
p5624
aVrajasthan_129.jpg
p5625
aVrajasthan_130.jpg
p5626
aVrajasthan_131.jpg
p5627
aVrajasthan_132.jpg
p5628
aVrajasthan_134.jpg
p5629
aVrajasthan_135.jpg
p5630
aVrajasthan_137.jpg
p5631
aVrajasthan_138.jpg
p5632
aVrajasthan_139.jpg
p5633
aVrajasthan_140.jpg
p5634
aVrajasthan_142.jpg
p5635
aVrajasthan_143.jpg
p5636
aVrajasthan_144.jpg
p5637
aVrajasthan_145.jpg
p5638
aVrajasthan_147.jpg
p5639
aVrajasthan_149.jpg
p5640
aVrajasthan_15.jpg
p5641
aVrajasthan_18.jpg
p5642
aVrajasthan_2.jpg
p5643
aVrajasthan_20.jpg
p5644
aVrajasthan_21.jpg
p5645
aVrajasthan_22.jpg
p5646
aVrajasthan_23.jpeg
p5647
aVrajasthan_25.jpg
p5648
aVrajasthan_26.jpg
p5649
aVrajasthan_27.jpg
p5650
aVrajasthan_28.jpg
p5651
aVrajasthan_29.jpg
p5652
aVrajasthan_31.jpg
p5653
aVrajasthan_32.jpg
p5654
aVrajasthan_34.jpg
p5655
aVrajasthan_36.png
p5656
aVrajasthan_37.jpg
p5657
aVrajasthan_38.jpg
p5658
aVrajasthan_39.jpg
p5659
aVrajasthan_4.jpg
p5660
aVrajasthan_42.jpg
p5661
aVrajasthan_43.jpg
p5662
aVrajasthan_45.jpg
p5663
aVrajasthan_46.jpg
p5664
aVrajasthan_47.jpg
p5665
aVrajasthan_48.jpg
p5666
aVrajasthan_49.jpg
p5667
aVrajasthan_5.jpg
p5668
aVrajasthan_51.jpg
p5669
aVrajasthan_52.jpg
p5670
aVrajasthan_53.jpg
p5671
aVrajasthan_54.jpg
p5672
aVrajasthan_55.jpg
p5673
aVrajasthan_57.jpg
p5674
aVrajasthan_58.jpg
p5675
aVrajasthan_59.jpg
p5676
aVrajasthan_6.jpg
p5677
aVrajasthan_60.jpg
p5678
aVrajasthan_61.jpg
p5679
aVrajasthan_62.jpg
p5680
aVrajasthan_63.jpg
p5681
aVrajasthan_66.jpg
p5682
aVrajasthan_67.jpg
p5683
aVrajasthan_7.jpeg
p5684
aVrajasthan_70.jpg
p5685
aVrajasthan_75.jpg
p5686
aVrajasthan_76.jpg
p5687
aVrajasthan_78.jpg
p5688
aVrajasthan_82.jpg
p5689
aVrajasthan_83.jpg
p5690
aVrajasthan_84.jpg
p5691
aVrajasthan_85.jpg
p5692
aVrajasthan_86.jpg
p5693
aVrajasthan_87.jpg
p5694
aVrajasthan_89.jpg
p5695
aVrajasthan_9.jpg
p5696
aVrajasthan_90.jpg
p5697
aVrajasthan_92.jpg
p5698
aVrajasthan_93.jpg
p5699
aVrajasthan_94.jpg
p5700
aVrajasthan_95.jpg
p5701
aVrajasthan_96.jpg
p5702
aVrajasthan_97.jpg
p5703
aVrajasthan_98.jpg
p5704
aVrajasthan_99.png
p5705
aVresort_10.jpg
p5706
aVresort_102.jpg
p5707
aVresort_106.jpg
p5708
aVresort_108.jpg
p5709
aVresort_110.jpeg
p5710
aVresort_111.jpg
p5711
aVresort_113.jpg
p5712
aVresort_116.jpg
p5713
aVresort_117.jpg
p5714
aVresort_118.jpg
p5715
aVresort_119.jpg
p5716
aVresort_12.jpg
p5717
aVresort_120.jpg
p5718
aVresort_122.jpg
p5719
aVresort_124.jpg
p5720
aVresort_126.jpg
p5721
aVresort_127.jpg
p5722
aVresort_130.jpg
p5723
aVresort_132.jpg
p5724
aVresort_133.png
p5725
aVresort_134.jpg
p5726
aVresort_14.jpg
p5727
aVresort_142.jpg
p5728
aVresort_143.jpg
p5729
aVresort_145.jpg
p5730
aVresort_146.jpg
p5731
aVresort_15.jpg
p5732
aVresort_17.jpg
p5733
aVresort_18.jpg
p5734
aVresort_24.jpg
p5735
aVresort_26.jpg
p5736
aVresort_30.jpg
p5737
aVresort_33.jpg
p5738
aVresort_34.jpg
p5739
aVresort_36.jpg
p5740
aVresort_37.jpg
p5741
aVresort_38.jpg
p5742
aVresort_39.jpg
p5743
aVresort_4.jpg
p5744
aVresort_40.jpg
p5745
aVresort_42.jpg
p5746
aVresort_44.jpg
p5747
aVresort_46.jpg
p5748
aVresort_47.jpg
p5749
aVresort_49.jpg
p5750
aVresort_5.jpg
p5751
aVresort_54.jpg
p5752
aVresort_55.jpg
p5753
aVresort_56.jpg
p5754
aVresort_6.jpg
p5755
aVresort_62.jpg
p5756
aVresort_63.jpg
p5757
aVresort_65.jpg
p5758
aVresort_66.jpg
p5759
aVresort_68.jpg
p5760
aVresort_69.jpg
p5761
aVresort_7.jpg
p5762
aVresort_70.jpg
p5763
aVresort_71.jpg
p5764
aVresort_72.jpg
p5765
aVresort_74.jpg
p5766
aVresort_76.jpg
p5767
aVresort_79.jpg
p5768
aVresort_8.jpg
p5769
aVresort_82.jpg
p5770
aVresort_84.jpg
p5771
aVresort_87.jpg
p5772
aVresort_88.jpg
p5773
aVresort_90.jpg
p5774
aVresort_92.jpg
p5775
aVresort_94.jpg
p5776
aVresort_95.jpg
p5777
aVresort_97.jpg
p5778
aVresort_98.jpg
p5779
aVrichard+feynman_101.png
p5780
aVrichard+feynman_103.jpg
p5781
aVrichard+feynman_104.jpg
p5782
aVrichard+feynman_107.jpg
p5783
aVrichard+feynman_109.jpg
p5784
aVrichard+feynman_11.png
p5785
aVrichard+feynman_110.png
p5786
aVrichard+feynman_113.jpg
p5787
aVrichard+feynman_114.jpg
p5788
aVrichard+feynman_117.jpg
p5789
aVrichard+feynman_12.jpg
p5790
aVrichard+feynman_120.jpg
p5791
aVrichard+feynman_126.jpg
p5792
aVrichard+feynman_127.jpg
p5793
aVrichard+feynman_130.jpg
p5794
aVrichard+feynman_131.jpg
p5795
aVrichard+feynman_132.jpg
p5796
aVrichard+feynman_133.jpg
p5797
aVrichard+feynman_134.jpg
p5798
aVrichard+feynman_136.jpg
p5799
aVrichard+feynman_139.jpg
p5800
aVrichard+feynman_143.png
p5801
aVrichard+feynman_145.jpg
p5802
aVrichard+feynman_147.jpg
p5803
aVrichard+feynman_15.jpg
p5804
aVrichard+feynman_17.jpg
p5805
aVrichard+feynman_18.jpg
p5806
aVrichard+feynman_19.jpg
p5807
aVrichard+feynman_2.jpg
p5808
aVrichard+feynman_22.jpg
p5809
aVrichard+feynman_23.jpg
p5810
aVrichard+feynman_24.jpg
p5811
aVrichard+feynman_25.jpg
p5812
aVrichard+feynman_26.jpg
p5813
aVrichard+feynman_27.jpg
p5814
aVrichard+feynman_28.jpg
p5815
aVrichard+feynman_3.jpg
p5816
aVrichard+feynman_30.jpg
p5817
aVrichard+feynman_31.png
p5818
aVrichard+feynman_33.jpg
p5819
aVrichard+feynman_34.jpg
p5820
aVrichard+feynman_36.jpg
p5821
aVrichard+feynman_38.jpg
p5822
aVrichard+feynman_42.png
p5823
aVrichard+feynman_45.jpg
p5824
aVrichard+feynman_46.jpg
p5825
aVrichard+feynman_49.jpg
p5826
aVrichard+feynman_5.jpg
p5827
aVrichard+feynman_50.jpg
p5828
aVrichard+feynman_51.jpg
p5829
aVrichard+feynman_53.jpg
p5830
aVrichard+feynman_56.jpg
p5831
aVrichard+feynman_59.jpg
p5832
aVrichard+feynman_60.jpg
p5833
aVrichard+feynman_65.jpg
p5834
aVrichard+feynman_68.jpg
p5835
aVrichard+feynman_69.jpg
p5836
aVrichard+feynman_7.jpg
p5837
aVrichard+feynman_76.jpg
p5838
aVrichard+feynman_77.jpg
p5839
aVrichard+feynman_81.jpg
p5840
aVrichard+feynman_85.jpg
p5841
aVrichard+feynman_86.jpg
p5842
aVrichard+feynman_87.jpg
p5843
aVrichard+feynman_88.jpg
p5844
aVrichard+feynman_9.jpg
p5845
aVrichard+feynman_90.jpg
p5846
aVrichard+feynman_92.jpg
p5847
aVrichard+feynman_94.jpg
p5848
aVrichard+feynman_97.jpg
p5849
aVroad_0.jpg
p5850
aVroad_10.jpg
p5851
aVroad_102.jpg
p5852
aVroad_103.jpg
p5853
aVroad_106.jpg
p5854
aVroad_108.jpg
p5855
aVroad_110.jpg
p5856
aVroad_112.jpg
p5857
aVroad_113.jpg
p5858
aVroad_115.png
p5859
aVroad_116.jpg
p5860
aVroad_118.jpg
p5861
aVroad_12.jpg
p5862
aVroad_121.jpg
p5863
aVroad_124.jpg
p5864
aVroad_128.jpg
p5865
aVroad_129.jpg
p5866
aVroad_131.jpg
p5867
aVroad_132.png
p5868
aVroad_135.jpg
p5869
aVroad_136.jpg
p5870
aVroad_137.jpg
p5871
aVroad_140.jpg
p5872
aVroad_142.jpg
p5873
aVroad_144.jpg
p5874
aVroad_145.jpg
p5875
aVroad_148.jpg
p5876
aVroad_16.jpg
p5877
aVroad_17.jpg
p5878
aVroad_19.jpg
p5879
aVroad_20.jpg
p5880
aVroad_22.jpg
p5881
aVroad_23.jpg
p5882
aVroad_24.jpg
p5883
aVroad_25.jpg
p5884
aVroad_28.jpg
p5885
aVroad_3.jpg
p5886
aVroad_32.jpg
p5887
aVroad_33.jpg
p5888
aVroad_35.jpg
p5889
aVroad_38.jpg
p5890
aVroad_4.jpg
p5891
aVroad_40.jpg
p5892
aVroad_41.jpg
p5893
aVroad_42.jpg
p5894
aVroad_44.jpg
p5895
aVroad_48.jpg
p5896
aVroad_49.jpg
p5897
aVroad_51.jpg
p5898
aVroad_52.jpg
p5899
aVroad_54.jpg
p5900
aVroad_56.jpg
p5901
aVroad_57.jpg
p5902
aVroad_6.jpg
p5903
aVroad_60.jpg
p5904
aVroad_64.jpg
p5905
aVroad_65.jpg
p5906
aVroad_67.jpg
p5907
aVroad_68.jpeg
p5908
aVroad_7.jpg
p5909
aVroad_70.jpg
p5910
aVroad_73.jpg
p5911
aVroad_74.jpg
p5912
aVroad_78.jpg
p5913
aVroad_80.jpg
p5914
aVroad_83.jpg
p5915
aVroad_84.jpg
p5916
aVroad_86.jpg
p5917
aVroad_87.jpg
p5918
aVroad_88.jpg
p5919
aVroad_89.jpg
p5920
aVroad_9.jpg
p5921
aVroad_92.jpg
p5922
aVroad_96.jpg
p5923
aVroad_97.jpg
p5924
aVroad_99.jpg
p5925
aVroti_1.jpg
p5926
aVroti_10.jpg
p5927
aVroti_100.jpg
p5928
aVroti_101.jpg
p5929
aVroti_102.jpg
p5930
aVroti_106.jpg
p5931
aVroti_108.jpg
p5932
aVroti_110.jpg
p5933
aVroti_111.jpg
p5934
aVroti_113.jpg
p5935
aVroti_114.jpg
p5936
aVroti_116.jpg
p5937
aVroti_117.jpg
p5938
aVroti_118.jpg
p5939
aVroti_122.jpg
p5940
aVroti_124.jpg
p5941
aVroti_126.jpg
p5942
aVroti_127.jpg
p5943
aVroti_129.jpg
p5944
aVroti_130.jpg
p5945
aVroti_134.jpg
p5946
aVroti_135.jpg
p5947
aVroti_136.jpg
p5948
aVroti_138.jpg
p5949
aVroti_14.jpg
p5950
aVroti_140.jpg
p5951
aVroti_143.jpg
p5952
aVroti_145.jpg
p5953
aVroti_146.jpg
p5954
aVroti_149.jpg
p5955
aVroti_15.jpg
p5956
aVroti_18.jpg
p5957
aVroti_2.jpg
p5958
aVroti_20.jpg
p5959
aVroti_21.jpg
p5960
aVroti_23.jpg
p5961
aVroti_24.jpg
p5962
aVroti_26.jpg
p5963
aVroti_28.jpg
p5964
aVroti_31.png
p5965
aVroti_34.jpg
p5966
aVroti_37.jpg
p5967
aVroti_38.jpg
p5968
aVroti_39.jpg
p5969
aVroti_40.jpg
p5970
aVroti_42.jpg
p5971
aVroti_44.jpg
p5972
aVroti_46.jpg
p5973
aVroti_49.jpg
p5974
aVroti_5.jpg
p5975
aVroti_50.jpg
p5976
aVroti_53.jpg
p5977
aVroti_54.png
p5978
aVroti_55.jpg
p5979
aVroti_56.png
p5980
aVroti_58.jpg
p5981
aVroti_6.jpg
p5982
aVroti_60.jpg
p5983
aVroti_62.jpg
p5984
aVroti_65.jpg
p5985
aVroti_68.jpg
p5986
aVroti_69.jpg
p5987
aVroti_7.jpg
p5988
aVroti_71.jpg
p5989
aVroti_74.jpg
p5990
aVroti_76.jpg
p5991
aVroti_78.jpg
p5992
aVroti_79.jpg
p5993
aVroti_81.jpg
p5994
aVroti_82.jpg
p5995
aVroti_86.jpg
p5996
aVroti_87.jpg
p5997
aVroti_88.jpg
p5998
aVroti_90.jpg
p5999
aVroti_92.jpg
p6000
aVroti_94.jpg
p6001
aVroti_95.jpg
p6002
aVroti_97.jpg
p6003
aVroti_98.jpg
p6004
aVsan+diego_1.jpg
p6005
aVsan+diego_102.jpg
p6006
aVsan+diego_104.jpg
p6007
aVsan+diego_105.jpg
p6008
aVsan+diego_107.jpg
p6009
aVsan+diego_11.jpg
p6010
aVsan+diego_110.jpg
p6011
aVsan+diego_111.jpg
p6012
aVsan+diego_113.jpg
p6013
aVsan+diego_114.jpg
p6014
aVsan+diego_116.jpg
p6015
aVsan+diego_123.jpg
p6016
aVsan+diego_124.jpg
p6017
aVsan+diego_128.jpg
p6018
aVsan+diego_129.jpg
p6019
aVsan+diego_130.jpg
p6020
aVsan+diego_134.jpg
p6021
aVsan+diego_137.jpg
p6022
aVsan+diego_139.jpg
p6023
aVsan+diego_14.jpg
p6024
aVsan+diego_140.jpg
p6025
aVsan+diego_142.jpg
p6026
aVsan+diego_143.jpg
p6027
aVsan+diego_144.jpg
p6028
aVsan+diego_145.jpg
p6029
aVsan+diego_146.jpg
p6030
aVsan+diego_15.jpg
p6031
aVsan+diego_16.jpg
p6032
aVsan+diego_17.jpg
p6033
aVsan+diego_20.jpg
p6034
aVsan+diego_22.jpg
p6035
aVsan+diego_24.jpg
p6036
aVsan+diego_25.jpg
p6037
aVsan+diego_27.jpg
p6038
aVsan+diego_28.jpg
p6039
aVsan+diego_30.jpg
p6040
aVsan+diego_31.jpg
p6041
aVsan+diego_32.jpg
p6042
aVsan+diego_33.jpg
p6043
aVsan+diego_34.jpg
p6044
aVsan+diego_36.jpg
p6045
aVsan+diego_4.jpg
p6046
aVsan+diego_40.jpg
p6047
aVsan+diego_43.jpg
p6048
aVsan+diego_44.jpg
p6049
aVsan+diego_47.jpeg
p6050
aVsan+diego_48.jpg
p6051
aVsan+diego_49.jpg
p6052
aVsan+diego_50.jpg
p6053
aVsan+diego_52.jpg
p6054
aVsan+diego_57.jpg
p6055
aVsan+diego_59.jpg
p6056
aVsan+diego_6.jpg
p6057
aVsan+diego_60.jpg
p6058
aVsan+diego_63.jpg
p6059
aVsan+diego_66.jpg
p6060
aVsan+diego_68.jpg
p6061
aVsan+diego_70.jpg
p6062
aVsan+diego_72.jpg
p6063
aVsan+diego_79.jpg
p6064
aVsan+diego_8.jpg
p6065
aVsan+diego_80.jpg
p6066
aVsan+diego_82.jpg
p6067
aVsan+diego_88.jpg
p6068
aVsan+diego_89.jpg
p6069
aVsan+diego_91.jpg
p6070
aVsan+diego_92.jpg
p6071
aVsan+diego_94.jpg
p6072
aVsan+diego_98.jpg
p6073
aVsandwich_0.jpg
p6074
aVsandwich_10.jpg
p6075
aVsandwich_102.jpg
p6076
aVsandwich_103.jpg
p6077
aVsandwich_104.jpg
p6078
aVsandwich_105.jpg
p6079
aVsandwich_106.jpeg
p6080
aVsandwich_107.png
p6081
aVsandwich_109.jpg
p6082
aVsandwich_110.jpg
p6083
aVsandwich_111.jpg
p6084
aVsandwich_113.jpeg
p6085
aVsandwich_114.jpg
p6086
aVsandwich_115.jpg
p6087
aVsandwich_116.jpg
p6088
aVsandwich_117.jpg
p6089
aVsandwich_118.jpg
p6090
aVsandwich_12.jpg
p6091
aVsandwich_120.jpg
p6092
aVsandwich_121.jpg
p6093
aVsandwich_122.jpg
p6094
aVsandwich_123.jpg
p6095
aVsandwich_13.png
p6096
aVsandwich_130.jpg
p6097
aVsandwich_131.jpg
p6098
aVsandwich_132.jpg
p6099
aVsandwich_135.jpg
p6100
aVsandwich_138.jpg
p6101
aVsandwich_14.jpg
p6102
aVsandwich_141.jpg
p6103
aVsandwich_142.jpg
p6104
aVsandwich_143.jpg
p6105
aVsandwich_144.jpg
p6106
aVsandwich_145.jpg
p6107
aVsandwich_146.jpg
p6108
aVsandwich_148.jpg
p6109
aVsandwich_15.png
p6110
aVsandwich_16.jpg
p6111
aVsandwich_18.jpg
p6112
aVsandwich_19.jpg
p6113
aVsandwich_2.jpg
p6114
aVsandwich_20.jpg
p6115
aVsandwich_21.jpg
p6116
aVsandwich_22.jpg
p6117
aVsandwich_24.jpg
p6118
aVsandwich_25.jpg
p6119
aVsandwich_28.jpg
p6120
aVsandwich_3.jpg
p6121
aVsandwich_30.jpg
p6122
aVsandwich_31.jpg
p6123
aVsandwich_32.jpg
p6124
aVsandwich_33.jpg
p6125
aVsandwich_34.jpg
p6126
aVsandwich_35.jpg
p6127
aVsandwich_36.jpg
p6128
aVsandwich_37.jpg
p6129
aVsandwich_38.jpg
p6130
aVsandwich_39.jpg
p6131
aVsandwich_4.jpg
p6132
aVsandwich_40.jpg
p6133
aVsandwich_41.jpg
p6134
aVsandwich_43.jpg
p6135
aVsandwich_44.jpg
p6136
aVsandwich_45.png
p6137
aVsandwich_46.jpg
p6138
aVsandwich_47.jpg
p6139
aVsandwich_48.jpg
p6140
aVsandwich_5.jpg
p6141
aVsandwich_51.jpg
p6142
aVsandwich_54.jpg
p6143
aVsandwich_55.jpg
p6144
aVsandwich_58.jpg
p6145
aVsandwich_6.jpg
p6146
aVsandwich_60.jpg
p6147
aVsandwich_61.jpg
p6148
aVsandwich_62.jpg
p6149
aVsandwich_66.jpg
p6150
aVsandwich_67.jpg
p6151
aVsandwich_69.jpg
p6152
aVsandwich_72.jpg
p6153
aVsandwich_74.jpg
p6154
aVsandwich_75.png
p6155
aVsandwich_77.jpg
p6156
aVsandwich_78.jpg
p6157
aVsandwich_79.jpg
p6158
aVsandwich_8.jpg
p6159
aVsandwich_82.jpg
p6160
aVsandwich_83.png
p6161
aVsandwich_86.png
p6162
aVsandwich_87.jpg
p6163
aVsandwich_88.png
p6164
aVsandwich_91.jpg
p6165
aVsandwich_92.jpg
p6166
aVsandwich_94.jpg
p6167
aVsandwich_95.jpg
p6168
aVsandwich_96.jpg
p6169
aVsandwich_98.jpg
p6170
aVsea_0.jpg
p6171
aVsea_1.jpg
p6172
aVsea_10.jpg
p6173
aVsea_102.jpg
p6174
aVsea_103.jpg
p6175
aVsea_104.jpg
p6176
aVsea_105.jpg
p6177
aVsea_106.jpg
p6178
aVsea_107.png
p6179
aVsea_108.png
p6180
aVsea_109.jpg
p6181
aVsea_11.jpg
p6182
aVsea_110.jpg
p6183
aVsea_111.jpg
p6184
aVsea_113.jpg
p6185
aVsea_114.jpg
p6186
aVsea_115.jpg
p6187
aVsea_117.jpg
p6188
aVsea_118.jpg
p6189
aVsea_119.jpg
p6190
aVsea_120.jpg
p6191
aVsea_121.jpg
p6192
aVsea_123.jpg
p6193
aVsea_124.jpg
p6194
aVsea_125.jpg
p6195
aVsea_127.jpg
p6196
aVsea_129.jpg
p6197
aVsea_130.jpg
p6198
aVsea_133.jpg
p6199
aVsea_134.jpg
p6200
aVsea_135.jpg
p6201
aVsea_136.jpg
p6202
aVsea_137.jpg
p6203
aVsea_14.jpg
p6204
aVsea_140.jpg
p6205
aVsea_141.jpg
p6206
aVsea_142.jpg
p6207
aVsea_143.jpg
p6208
aVsea_144.jpg
p6209
aVsea_145.jpg
p6210
aVsea_146.jpg
p6211
aVsea_148.jpg
p6212
aVsea_149.jpg
p6213
aVsea_15.jpg
p6214
aVsea_17.jpg
p6215
aVsea_18.jpg
p6216
aVsea_2.jpg
p6217
aVsea_20.jpg
p6218
aVsea_21.jpg
p6219
aVsea_23.jpg
p6220
aVsea_25.jpg
p6221
aVsea_26.jpg
p6222
aVsea_27.jpg
p6223
aVsea_28.jpg
p6224
aVsea_3.jpg
p6225
aVsea_30.jpg
p6226
aVsea_31.jpg
p6227
aVsea_33.jpg
p6228
aVsea_36.jpg
p6229
aVsea_37.jpg
p6230
aVsea_38.jpg
p6231
aVsea_39.jpg
p6232
aVsea_4.jpg
p6233
aVsea_40.jpg
p6234
aVsea_41.jpg
p6235
aVsea_42.jpg
p6236
aVsea_43.jpg
p6237
aVsea_44.jpg
p6238
aVsea_45.jpg
p6239
aVsea_46.jpg
p6240
aVsea_47.jpg
p6241
aVsea_48.jpg
p6242
aVsea_49.jpg
p6243
aVsea_5.jpg
p6244
aVsea_50.jpg
p6245
aVsea_51.jpg
p6246
aVsea_52.jpg
p6247
aVsea_53.jpg
p6248
aVsea_55.jpg
p6249
aVsea_58.jpg
p6250
aVsea_59.jpg
p6251
aVsea_6.jpg
p6252
aVsea_60.jpg
p6253
aVsea_62.jpg
p6254
aVsea_64.jpg
p6255
aVsea_67.jpg
p6256
aVsea_68.jpg
p6257
aVsea_69.jpg
p6258
aVsea_71.jpg
p6259
aVsea_72.jpg
p6260
aVsea_74.jpg
p6261
aVsea_76.jpg
p6262
aVsea_77.jpg
p6263
aVsea_78.jpg
p6264
aVsea_79.jpg
p6265
aVsea_8.jpg
p6266
aVsea_80.jpg
p6267
aVsea_81.jpg
p6268
aVsea_82.jpg
p6269
aVsea_83.jpg
p6270
aVsea_86.jpg
p6271
aVsea_87.jpg
p6272
aVsea_88.jpg
p6273
aVsea_89.jpg
p6274
aVsea_9.jpg
p6275
aVsea_90.jpg
p6276
aVsea_91.jpg
p6277
aVsea_92.jpg
p6278
aVsea_95.jpg
p6279
aVsea_96.jpg
p6280
aVsea_97.jpg
p6281
aVsea_98.jpg
p6282
aVsea_99.jpg
p6283
aVsilk_10.jpg
p6284
aVsilk_100.jpg
p6285
aVsilk_101.jpg
p6286
aVsilk_103.jpg
p6287
aVsilk_104.jpg
p6288
aVsilk_106.jpg
p6289
aVsilk_107.jpg
p6290
aVsilk_108.jpg
p6291
aVsilk_11.jpg
p6292
aVsilk_110.jpg
p6293
aVsilk_111.jpg
p6294
aVsilk_112.jpg
p6295
aVsilk_114.jpg
p6296
aVsilk_116.jpg
p6297
aVsilk_117.jpg
p6298
aVsilk_119.jpg
p6299
aVsilk_12.jpg
p6300
aVsilk_120.jpg
p6301
aVsilk_124.jpg
p6302
aVsilk_125.jpg
p6303
aVsilk_127.jpg
p6304
aVsilk_128.jpg
p6305
aVsilk_13.jpg
p6306
aVsilk_130.jpg
p6307
aVsilk_132.jpg
p6308
aVsilk_133.jpg
p6309
aVsilk_135.jpg
p6310
aVsilk_136.jpg
p6311
aVsilk_138.jpg
p6312
aVsilk_139.jpg
p6313
aVsilk_14.jpg
p6314
aVsilk_140.png
p6315
aVsilk_141.jpg
p6316
aVsilk_142.jpg
p6317
aVsilk_143.jpg
p6318
aVsilk_144.png
p6319
aVsilk_146.jpg
p6320
aVsilk_149.jpg
p6321
aVsilk_15.jpg
p6322
aVsilk_16.jpg
p6323
aVsilk_18.jpg
p6324
aVsilk_2.jpg
p6325
aVsilk_20.jpg
p6326
aVsilk_21.jpg
p6327
aVsilk_23.jpg
p6328
aVsilk_24.jpg
p6329
aVsilk_27.jpg
p6330
aVsilk_28.jpg
p6331
aVsilk_29.jpg
p6332
aVsilk_30.jpg
p6333
aVsilk_31.jpg
p6334
aVsilk_32.jpg
p6335
aVsilk_34.jpg
p6336
aVsilk_36.jpg
p6337
aVsilk_37.jpg
p6338
aVsilk_40.jpg
p6339
aVsilk_44.jpg
p6340
aVsilk_45.jpg
p6341
aVsilk_46.jpg
p6342
aVsilk_50.jpg
p6343
aVsilk_52.jpg
p6344
aVsilk_53.jpg
p6345
aVsilk_55.jpg
p6346
aVsilk_56.jpg
p6347
aVsilk_58.jpg
p6348
aVsilk_59.jpg
p6349
aVsilk_60.jpg
p6350
aVsilk_61.jpg
p6351
aVsilk_62.jpg
p6352
aVsilk_63.jpg
p6353
aVsilk_64.jpg
p6354
aVsilk_66.jpg
p6355
aVsilk_68.jpg
p6356
aVsilk_7.jpg
p6357
aVsilk_72.jpg
p6358
aVsilk_75.jpg
p6359
aVsilk_76.jpg
p6360
aVsilk_77.jpg
p6361
aVsilk_79.jpg
p6362
aVsilk_80.jpg
p6363
aVsilk_85.jpg
p6364
aVsilk_88.jpg
p6365
aVsilk_90.jpg
p6366
aVsilk_91.jpg
p6367
aVsilk_93.jpg
p6368
aVsilk_94.jpg
p6369
aVsilk_96.jpg
p6370
aVsilk_98.jpg
p6371
aVstage_100.jpg
p6372
aVstage_102.jpeg
p6373
aVstage_104.jpg
p6374
aVstage_110.jpg
p6375
aVstage_112.jpg
p6376
aVstage_114.jpg
p6377
aVstage_116.jpg
p6378
aVstage_12.jpg
p6379
aVstage_120.jpg
p6380
aVstage_121.jpg
p6381
aVstage_123.png
p6382
aVstage_126.jpg
p6383
aVstage_127.jpg
p6384
aVstage_128.jpg
p6385
aVstage_129.jpg
p6386
aVstage_136.jpg
p6387
aVstage_137.jpg
p6388
aVstage_139.jpg
p6389
aVstage_14.jpg
p6390
aVstage_140.jpg
p6391
aVstage_142.jpg
p6392
aVstage_144.jpg
p6393
aVstage_145.jpg
p6394
aVstage_148.jpg
p6395
aVstage_15.jpeg
p6396
aVstage_16.jpg
p6397
aVstage_17.jpg
p6398
aVstage_18.jpg
p6399
aVstage_2.jpg
p6400
aVstage_20.jpg
p6401
aVstage_22.jpg
p6402
aVstage_25.png
p6403
aVstage_27.jpg
p6404
aVstage_28.jpg
p6405
aVstage_32.jpg
p6406
aVstage_34.jpg
p6407
aVstage_36.jpg
p6408
aVstage_38.jpg
p6409
aVstage_4.png
p6410
aVstage_40.jpg
p6411
aVstage_41.jpg
p6412
aVstage_43.jpg
p6413
aVstage_44.jpg
p6414
aVstage_47.jpg
p6415
aVstage_48.jpg
p6416
aVstage_49.jpg
p6417
aVstage_50.jpg
p6418
aVstage_52.jpg
p6419
aVstage_56.jpg
p6420
aVstage_59.jpg
p6421
aVstage_6.jpg
p6422
aVstage_60.jpg
p6423
aVstage_62.jpg
p6424
aVstage_63.jpg
p6425
aVstage_64.jpg
p6426
aVstage_65.jpg
p6427
aVstage_66.jpg
p6428
aVstage_72.jpg
p6429
aVstage_73.jpg
p6430
aVstage_79.jpg
p6431
aVstage_8.jpg
p6432
aVstage_80.jpg
p6433
aVstage_82.jpg
p6434
aVstage_89.jpg
p6435
aVstage_91.jpg
p6436
aVstanford+cathedral_0.jpg
p6437
aVstanford+cathedral_10.jpg
p6438
aVstanford+cathedral_101.jpg
p6439
aVstanford+cathedral_102.jpg
p6440
aVstanford+cathedral_106.jpg
p6441
aVstanford+cathedral_107.jpg
p6442
aVstanford+cathedral_108.jpg
p6443
aVstanford+cathedral_114.jpg
p6444
aVstanford+cathedral_115.jpg
p6445
aVstanford+cathedral_118.jpg
p6446
aVstanford+cathedral_12.jpg
p6447
aVstanford+cathedral_120.jpg
p6448
aVstanford+cathedral_121.jpg
p6449
aVstanford+cathedral_122.jpg
p6450
aVstanford+cathedral_124.jpg
p6451
aVstanford+cathedral_126.jpg
p6452
aVstanford+cathedral_128.jpg
p6453
aVstanford+cathedral_13.jpg
p6454
aVstanford+cathedral_130.jpg
p6455
aVstanford+cathedral_131.jpg
p6456
aVstanford+cathedral_134.jpg
p6457
aVstanford+cathedral_137.jpg
p6458
aVstanford+cathedral_14.jpg
p6459
aVstanford+cathedral_144.jpg
p6460
aVstanford+cathedral_147.jpg
p6461
aVstanford+cathedral_18.jpg
p6462
aVstanford+cathedral_2.jpg
p6463
aVstanford+cathedral_21.jpg
p6464
aVstanford+cathedral_24.jpg
p6465
aVstanford+cathedral_29.jpg
p6466
aVstanford+cathedral_30.jpg
p6467
aVstanford+cathedral_32.jpg
p6468
aVstanford+cathedral_34.jpg
p6469
aVstanford+cathedral_35.jpg
p6470
aVstanford+cathedral_37.jpeg
p6471
aVstanford+cathedral_38.jpg
p6472
aVstanford+cathedral_40.jpg
p6473
aVstanford+cathedral_44.jpg
p6474
aVstanford+cathedral_46.jpg
p6475
aVstanford+cathedral_48.jpg
p6476
aVstanford+cathedral_5.jpg
p6477
aVstanford+cathedral_50.jpg
p6478
aVstanford+cathedral_53.jpg
p6479
aVstanford+cathedral_57.jpg
p6480
aVstanford+cathedral_58.jpg
p6481
aVstanford+cathedral_59.jpg
p6482
aVstanford+cathedral_6.jpg
p6483
aVstanford+cathedral_61.jpg
p6484
aVstanford+cathedral_64.jpg
p6485
aVstanford+cathedral_67.jpg
p6486
aVstanford+cathedral_69.jpg
p6487
aVstanford+cathedral_75.jpg
p6488
aVstanford+cathedral_76.jpg
p6489
aVstanford+cathedral_77.jpg
p6490
aVstanford+cathedral_78.jpg
p6491
aVstanford+cathedral_8.jpg
p6492
aVstanford+cathedral_80.jpg
p6493
aVstanford+cathedral_88.jpg
p6494
aVstanford+cathedral_89.jpg
p6495
aVstanford+cathedral_9.jpg
p6496
aVstanford+cathedral_90.jpg
p6497
aVstanford+cathedral_93.jpg
p6498
aVstanford+cathedral_94.jpg
p6499
aVsteel_0.jpg
p6500
aVsteel_1.jpg
p6501
aVsteel_10.jpg
p6502
aVsteel_100.jpg
p6503
aVsteel_101.png
p6504
aVsteel_102.jpg
p6505
aVsteel_106.jpg
p6506
aVsteel_107.jpg
p6507
aVsteel_109.jpg
p6508
aVsteel_11.jpg
p6509
aVsteel_110.jpg
p6510
aVsteel_112.jpg
p6511
aVsteel_113.jpg
p6512
aVsteel_114.jpg
p6513
aVsteel_115.jpg
p6514
aVsteel_116.jpg
p6515
aVsteel_118.jpg
p6516
aVsteel_123.jpg
p6517
aVsteel_125.jpg
p6518
aVsteel_129.jpg
p6519
aVsteel_131.jpg
p6520
aVsteel_132.jpg
p6521
aVsteel_134.jpg
p6522
aVsteel_136.jpg
p6523
aVsteel_138.png
p6524
aVsteel_139.jpg
p6525
aVsteel_142.jpg
p6526
aVsteel_144.jpg
p6527
aVsteel_145.jpg
p6528
aVsteel_146.jpg
p6529
aVsteel_147.jpg
p6530
aVsteel_148.jpg
p6531
aVsteel_149.jpg
p6532
aVsteel_16.jpg
p6533
aVsteel_17.jpg
p6534
aVsteel_18.jpg
p6535
aVsteel_19.jpg
p6536
aVsteel_2.jpg
p6537
aVsteel_21.jpg
p6538
aVsteel_22.jpg
p6539
aVsteel_29.jpg
p6540
aVsteel_3.jpg
p6541
aVsteel_32.jpg
p6542
aVsteel_33.jpg
p6543
aVsteel_34.jpg
p6544
aVsteel_36.jpg
p6545
aVsteel_37.jpg
p6546
aVsteel_38.jpg
p6547
aVsteel_4.jpg
p6548
aVsteel_40.jpg
p6549
aVsteel_42.jpg
p6550
aVsteel_43.jpg
p6551
aVsteel_45.jpg
p6552
aVsteel_46.jpg
p6553
aVsteel_48.jpg
p6554
aVsteel_5.jpg
p6555
aVsteel_52.jpg
p6556
aVsteel_53.jpg
p6557
aVsteel_54.jpg
p6558
aVsteel_56.jpg
p6559
aVsteel_58.jpg
p6560
aVsteel_59.jpg
p6561
aVsteel_61.jpg
p6562
aVsteel_62.jpg
p6563
aVsteel_64.jpg
p6564
aVsteel_65.jpg
p6565
aVsteel_67.jpg
p6566
aVsteel_68.jpg
p6567
aVsteel_69.jpg
p6568
aVsteel_72.jpg
p6569
aVsteel_74.jpg
p6570
aVsteel_75.jpg
p6571
aVsteel_77.jpg
p6572
aVsteel_8.jpg
p6573
aVsteel_80.jpg
p6574
aVsteel_81.jpg
p6575
aVsteel_85.jpg
p6576
aVsteel_88.jpg
p6577
aVsteel_90.jpg
p6578
aVsteel_94.jpg
p6579
aVsteel_97.jpg
p6580
aVstreet_100.jpg
p6581
aVstreet_103.jpg
p6582
aVstreet_105.jpg
p6583
aVstreet_112.jpeg
p6584
aVstreet_113.jpg
p6585
aVstreet_121.jpg
p6586
aVstreet_123.jpg
p6587
aVstreet_124.jpg
p6588
aVstreet_138.jpg
p6589
aVstreet_145.jpg
p6590
aVstreet_16.jpg
p6591
aVstreet_17.jpg
p6592
aVstreet_20.jpg
p6593
aVstreet_22.jpg
p6594
aVstreet_27.jpg
p6595
aVstreet_28.jpg
p6596
aVstreet_3.png
p6597
aVstreet_30.png
p6598
aVstreet_33.jpg
p6599
aVstreet_41.jpg
p6600
aVstreet_48.jpg
p6601
aVstreet_51.jpg
p6602
aVstreet_55.jpg
p6603
aVstreet_57.jpg
p6604
aVstreet_58.jpg
p6605
aVstreet_68.jpg
p6606
aVstreet_73.jpg
p6607
aVstreet_80.jpg
p6608
aVstreet_83.jpg
p6609
aVstreet_84.jpg
p6610
aVstreet_87.jpg
p6611
aVstreet_88.jpg
p6612
aVstreet_97.jpg
p6613
aVstudent_0.jpg
p6614
aVstudent_1.jpg
p6615
aVstudent_100.jpg
p6616
aVstudent_102.jpg
p6617
aVstudent_104.jpg
p6618
aVstudent_105.jpg
p6619
aVstudent_107.jpg
p6620
aVstudent_108.png
p6621
aVstudent_11.jpg
p6622
aVstudent_110.jpg
p6623
aVstudent_113.jpg
p6624
aVstudent_114.jpg
p6625
aVstudent_115.jpg
p6626
aVstudent_116.jpg
p6627
aVstudent_118.jpg
p6628
aVstudent_12.jpg
p6629
aVstudent_120.jpg
p6630
aVstudent_121.jpg
p6631
aVstudent_123.jpg
p6632
aVstudent_124.jpg
p6633
aVstudent_128.jpg
p6634
aVstudent_129.jpg
p6635
aVstudent_130.jpg
p6636
aVstudent_131.jpg
p6637
aVstudent_132.jpg
p6638
aVstudent_134.jpg
p6639
aVstudent_136.jpg
p6640
aVstudent_14.jpg
p6641
aVstudent_140.jpg
p6642
aVstudent_142.jpg
p6643
aVstudent_143.jpg
p6644
aVstudent_148.png
p6645
aVstudent_15.jpg
p6646
aVstudent_18.jpg
p6647
aVstudent_19.jpg
p6648
aVstudent_2.jpg
p6649
aVstudent_20.jpg
p6650
aVstudent_25.jpg
p6651
aVstudent_27.jpg
p6652
aVstudent_28.jpg
p6653
aVstudent_3.jpg
p6654
aVstudent_30.png
p6655
aVstudent_31.jpg
p6656
aVstudent_33.png
p6657
aVstudent_34.jpg
p6658
aVstudent_36.jpg
p6659
aVstudent_38.jpg
p6660
aVstudent_40.png
p6661
aVstudent_41.jpg
p6662
aVstudent_46.jpg
p6663
aVstudent_48.png
p6664
aVstudent_49.jpg
p6665
aVstudent_50.jpg
p6666
aVstudent_54.jpg
p6667
aVstudent_56.jpg
p6668
aVstudent_57.jpg
p6669
aVstudent_59.jpg
p6670
aVstudent_6.jpg
p6671
aVstudent_60.jpg
p6672
aVstudent_62.jpg
p6673
aVstudent_63.png
p6674
aVstudent_64.jpg
p6675
aVstudent_65.jpg
p6676
aVstudent_68.jpg
p6677
aVstudent_70.jpg
p6678
aVstudent_75.jpg
p6679
aVstudent_79.jpg
p6680
aVstudent_8.png
p6681
aVstudent_80.jpg
p6682
aVstudent_81.jpg
p6683
aVstudent_82.jpg
p6684
aVstudent_83.jpg
p6685
aVstudent_84.jpg
p6686
aVstudent_86.jpg
p6687
aVstudent_89.jpg
p6688
aVstudent_9.jpg
p6689
aVstudent_91.jpg
p6690
aVstudent_94.jpg
p6691
aVstudent_95.jpg
p6692
aVstudent_96.jpg
p6693
aVstudent_97.jpg
p6694
aVstudy+room_1.jpg
p6695
aVstudy+room_101.jpg
p6696
aVstudy+room_103.jpg
p6697
aVstudy+room_104.jpg
p6698
aVstudy+room_105.jpg
p6699
aVstudy+room_106.jpg
p6700
aVstudy+room_109.jpg
p6701
aVstudy+room_115.jpg
p6702
aVstudy+room_117.jpg
p6703
aVstudy+room_118.jpg
p6704
aVstudy+room_119.jpg
p6705
aVstudy+room_120.jpg
p6706
aVstudy+room_121.jpg
p6707
aVstudy+room_123.jpg
p6708
aVstudy+room_127.jpg
p6709
aVstudy+room_129.jpg
p6710
aVstudy+room_13.jpg
p6711
aVstudy+room_130.jpg
p6712
aVstudy+room_131.jpg
p6713
aVstudy+room_136.jpg
p6714
aVstudy+room_137.jpg
p6715
aVstudy+room_139.jpg
p6716
aVstudy+room_14.jpg
p6717
aVstudy+room_142.jpg
p6718
aVstudy+room_143.jpg
p6719
aVstudy+room_145.jpg
p6720
aVstudy+room_15.jpg
p6721
aVstudy+room_16.jpg
p6722
aVstudy+room_17.jpg
p6723
aVstudy+room_18.jpg
p6724
aVstudy+room_19.jpg
p6725
aVstudy+room_2.jpg
p6726
aVstudy+room_20.jpg
p6727
aVstudy+room_22.jpg
p6728
aVstudy+room_24.jpg
p6729
aVstudy+room_30.jpg
p6730
aVstudy+room_31.jpg
p6731
aVstudy+room_34.jpg
p6732
aVstudy+room_36.jpg
p6733
aVstudy+room_37.jpg
p6734
aVstudy+room_38.jpg
p6735
aVstudy+room_39.jpg
p6736
aVstudy+room_4.jpg
p6737
aVstudy+room_40.jpg
p6738
aVstudy+room_41.jpg
p6739
aVstudy+room_46.jpeg
p6740
aVstudy+room_47.jpg
p6741
aVstudy+room_48.jpg
p6742
aVstudy+room_5.jpg
p6743
aVstudy+room_50.jpg
p6744
aVstudy+room_51.jpg
p6745
aVstudy+room_54.jpg
p6746
aVstudy+room_59.jpg
p6747
aVstudy+room_61.jpg
p6748
aVstudy+room_62.jpg
p6749
aVstudy+room_74.jpg
p6750
aVstudy+room_79.jpg
p6751
aVstudy+room_81.jpg
p6752
aVstudy+room_87.jpg
p6753
aVstudy+room_88.jpg
p6754
aVstudy+room_89.jpg
p6755
aVstudy+room_9.jpg
p6756
aVstudy+room_94.jpg
p6757
aVstudy+room_96.jpg
p6758
aVstudy+room_98.jpg
p6759
aVsun_0.jpg
p6760
aVsun_1.jpg
p6761
aVsun_10.png
p6762
aVsun_101.jpg
p6763
aVsun_103.png
p6764
aVsun_104.jpg
p6765
aVsun_107.jpg
p6766
aVsun_108.jpg
p6767
aVsun_110.jpg
p6768
aVsun_112.jpg
p6769
aVsun_113.jpg
p6770
aVsun_115.png
p6771
aVsun_117.jpg
p6772
aVsun_118.jpg
p6773
aVsun_119.jpg
p6774
aVsun_12.jpg
p6775
aVsun_120.jpg
p6776
aVsun_121.jpg
p6777
aVsun_124.jpg
p6778
aVsun_126.jpg
p6779
aVsun_127.jpg
p6780
aVsun_128.jpg
p6781
aVsun_131.jpg
p6782
aVsun_133.jpg
p6783
aVsun_134.jpg
p6784
aVsun_136.jpg
p6785
aVsun_137.jpg
p6786
aVsun_139.jpg
p6787
aVsun_14.png
p6788
aVsun_141.jpg
p6789
aVsun_144.jpg
p6790
aVsun_145.jpg
p6791
aVsun_146.jpg
p6792
aVsun_149.jpg
p6793
aVsun_15.jpg
p6794
aVsun_16.jpg
p6795
aVsun_17.jpg
p6796
aVsun_18.png
p6797
aVsun_19.jpg
p6798
aVsun_2.jpg
p6799
aVsun_20.jpg
p6800
aVsun_21.jpg
p6801
aVsun_22.png
p6802
aVsun_24.jpg
p6803
aVsun_26.jpg
p6804
aVsun_27.jpg
p6805
aVsun_28.jpg
p6806
aVsun_29.jpg
p6807
aVsun_3.jpg
p6808
aVsun_30.jpg
p6809
aVsun_31.jpg
p6810
aVsun_32.jpg
p6811
aVsun_34.jpg
p6812
aVsun_35.jpg
p6813
aVsun_4.jpg
p6814
aVsun_43.jpg
p6815
aVsun_45.jpg
p6816
aVsun_46.jpg
p6817
aVsun_51.jpg
p6818
aVsun_52.jpg
p6819
aVsun_53.jpg
p6820
aVsun_54.jpg
p6821
aVsun_55.jpg
p6822
aVsun_58.jpg
p6823
aVsun_6.jpg
p6824
aVsun_61.jpg
p6825
aVsun_63.jpg
p6826
aVsun_66.jpg
p6827
aVsun_69.jpg
p6828
aVsun_7.jpg
p6829
aVsun_70.jpg
p6830
aVsun_73.jpg
p6831
aVsun_75.jpg
p6832
aVsun_77.jpg
p6833
aVsun_78.jpg
p6834
aVsun_79.jpg
p6835
aVsun_82.jpg
p6836
aVsun_83.jpg
p6837
aVsun_85.jpg
p6838
aVsun_86.jpg
p6839
aVsun_89.jpg
p6840
aVsun_9.jpg
p6841
aVsun_90.jpg
p6842
aVsun_94.jpg
p6843
aVsun_95.jpg
p6844
aVsun_96.jpg
p6845
aVsun_98.jpg
p6846
aVsun_99.jpg
p6847
aVswan_0.jpg
p6848
aVswan_10.jpg
p6849
aVswan_104.jpg
p6850
aVswan_106.jpg
p6851
aVswan_107.jpg
p6852
aVswan_108.jpg
p6853
aVswan_110.jpg
p6854
aVswan_112.jpg
p6855
aVswan_114.jpg
p6856
aVswan_115.png
p6857
aVswan_117.jpg
p6858
aVswan_120.jpg
p6859
aVswan_121.jpg
p6860
aVswan_123.png
p6861
aVswan_124.jpg
p6862
aVswan_130.jpg
p6863
aVswan_131.jpg
p6864
aVswan_133.jpg
p6865
aVswan_134.jpg
p6866
aVswan_136.jpg
p6867
aVswan_139.jpg
p6868
aVswan_14.jpg
p6869
aVswan_140.jpg
p6870
aVswan_144.jpg
p6871
aVswan_146.jpg
p6872
aVswan_147.jpg
p6873
aVswan_149.jpg
p6874
aVswan_18.jpg
p6875
aVswan_2.jpg
p6876
aVswan_21.jpg
p6877
aVswan_24.jpg
p6878
aVswan_25.jpg
p6879
aVswan_27.jpg
p6880
aVswan_30.jpg
p6881
aVswan_34.jpg
p6882
aVswan_35.jpg
p6883
aVswan_37.jpg
p6884
aVswan_38.jpg
p6885
aVswan_40.jpg
p6886
aVswan_41.jpg
p6887
aVswan_42.jpg
p6888
aVswan_44.jpg
p6889
aVswan_46.jpg
p6890
aVswan_48.jpg
p6891
aVswan_5.jpg
p6892
aVswan_51.jpg
p6893
aVswan_53.jpg
p6894
aVswan_54.jpg
p6895
aVswan_56.jpg
p6896
aVswan_59.jpg
p6897
aVswan_60.jpg
p6898
aVswan_62.jpg
p6899
aVswan_64.jpg
p6900
aVswan_66.jpg
p6901
aVswan_67.jpg
p6902
aVswan_69.jpg
p6903
aVswan_70.jpg
p6904
aVswan_72.jpg
p6905
aVswan_73.jpg
p6906
aVswan_74.jpg
p6907
aVswan_75.jpg
p6908
aVswan_76.jpg
p6909
aVswan_85.jpg
p6910
aVswan_9.jpg
p6911
aVswan_90.jpg
p6912
aVswan_99.jpg
p6913
aVswimming_10.jpg
p6914
aVswimming_100.jpg
p6915
aVswimming_101.jpg
p6916
aVswimming_102.jpg
p6917
aVswimming_104.jpg
p6918
aVswimming_106.jpg
p6919
aVswimming_108.jpg
p6920
aVswimming_109.jpg
p6921
aVswimming_111.jpg
p6922
aVswimming_112.jpg
p6923
aVswimming_115.jpg
p6924
aVswimming_117.jpg
p6925
aVswimming_118.jpg
p6926
aVswimming_119.jpg
p6927
aVswimming_12.jpg
p6928
aVswimming_122.jpg
p6929
aVswimming_125.jpg
p6930
aVswimming_127.jpg
p6931
aVswimming_128.jpg
p6932
aVswimming_132.jpg
p6933
aVswimming_133.jpg
p6934
aVswimming_138.jpg
p6935
aVswimming_140.jpg
p6936
aVswimming_143.jpg
p6937
aVswimming_147.jpg
p6938
aVswimming_148.jpg
p6939
aVswimming_18.jpg
p6940
aVswimming_19.jpg
p6941
aVswimming_2.jpg
p6942
aVswimming_20.jpg
p6943
aVswimming_21.jpg
p6944
aVswimming_22.jpg
p6945
aVswimming_23.jpg
p6946
aVswimming_28.jpg
p6947
aVswimming_29.jpg
p6948
aVswimming_3.jpg
p6949
aVswimming_34.jpg
p6950
aVswimming_35.jpg
p6951
aVswimming_36.jpg
p6952
aVswimming_37.jpg
p6953
aVswimming_38.jpg
p6954
aVswimming_4.jpg
p6955
aVswimming_42.jpg
p6956
aVswimming_44.jpg
p6957
aVswimming_45.jpg
p6958
aVswimming_47.jpg
p6959
aVswimming_48.jpg
p6960
aVswimming_50.jpg
p6961
aVswimming_51.jpg
p6962
aVswimming_52.jpeg
p6963
aVswimming_54.jpg
p6964
aVswimming_56.jpg
p6965
aVswimming_58.jpg
p6966
aVswimming_60.jpg
p6967
aVswimming_61.jpg
p6968
aVswimming_63.jpg
p6969
aVswimming_64.jpg
p6970
aVswimming_66.jpg
p6971
aVswimming_69.jpg
p6972
aVswimming_70.jpg
p6973
aVswimming_72.jpg
p6974
aVswimming_77.jpg
p6975
aVswimming_79.jpg
p6976
aVswimming_80.jpg
p6977
aVswimming_83.jpg
p6978
aVswimming_86.jpg
p6979
aVswimming_88.jpg
p6980
aVswimming_90.png
p6981
aVswimming_95.jpg
p6982
aVswimming_96.jpg
p6983
aVtennis_103.jpg
p6984
aVtennis_106.jpg
p6985
aVtennis_107.jpg
p6986
aVtennis_109.jpg
p6987
aVtennis_11.jpg
p6988
aVtennis_110.jpg
p6989
aVtennis_116.jpg
p6990
aVtennis_119.jpg
p6991
aVtennis_12.jpg
p6992
aVtennis_122.jpg
p6993
aVtennis_125.jpg
p6994
aVtennis_126.jpg
p6995
aVtennis_13.jpg
p6996
aVtennis_130.jpg
p6997
aVtennis_132.jpg
p6998
aVtennis_133.jpg
p6999
aVtennis_135.jpg
p7000
aVtennis_139.jpg
p7001
aVtennis_140.jpg
p7002
aVtennis_144.jpg
p7003
aVtennis_148.jpg
p7004
aVtennis_18.jpg
p7005
aVtennis_2.jpg
p7006
aVtennis_21.jpg
p7007
aVtennis_24.jpg
p7008
aVtennis_26.jpg
p7009
aVtennis_27.jpg
p7010
aVtennis_29.jpg
p7011
aVtennis_30.jpg
p7012
aVtennis_32.jpg
p7013
aVtennis_34.jpg
p7014
aVtennis_36.jpg
p7015
aVtennis_4.jpg
p7016
aVtennis_43.jpg
p7017
aVtennis_44.jpg
p7018
aVtennis_48.jpg
p7019
aVtennis_50.jpg
p7020
aVtennis_52.jpg
p7021
aVtennis_55.jpg
p7022
aVtennis_58.jpg
p7023
aVtennis_61.jpg
p7024
aVtennis_62.jpg
p7025
aVtennis_68.jpg
p7026
aVtennis_71.jpg
p7027
aVtennis_72.jpg
p7028
aVtennis_74.jpg
p7029
aVtennis_78.jpg
p7030
aVtennis_8.jpg
p7031
aVtennis_84.jpg
p7032
aVtennis_85.jpg
p7033
aVtennis_88.jpeg
p7034
aVtennis_91.jpg
p7035
aVtennis_92.jpg
p7036
aVtennis_93.jpg
p7037
aVtennis_98.jpg
p7038
aVtexture_0.jpg
p7039
aVtexture_10.jpg
p7040
aVtexture_100.jpg
p7041
aVtexture_101.jpg
p7042
aVtexture_102.jpg
p7043
aVtexture_104.jpg
p7044
aVtexture_106.jpg
p7045
aVtexture_108.jpg
p7046
aVtexture_109.jpg
p7047
aVtexture_111.jpg
p7048
aVtexture_112.jpg
p7049
aVtexture_114.jpg
p7050
aVtexture_117.jpg
p7051
aVtexture_118.jpg
p7052
aVtexture_12.jpg
p7053
aVtexture_120.jpg
p7054
aVtexture_122.jpg
p7055
aVtexture_124.jpg
p7056
aVtexture_125.jpg
p7057
aVtexture_127.jpg
p7058
aVtexture_128.jpg
p7059
aVtexture_13.jpg
p7060
aVtexture_130.jpg
p7061
aVtexture_131.jpg
p7062
aVtexture_132.jpg
p7063
aVtexture_133.jpg
p7064
aVtexture_134.jpg
p7065
aVtexture_136.jpg
p7066
aVtexture_138.jpg
p7067
aVtexture_140.jpg
p7068
aVtexture_143.jpg
p7069
aVtexture_146.jpg
p7070
aVtexture_147.jpg
p7071
aVtexture_148.jpg
p7072
aVtexture_149.jpg
p7073
aVtexture_15.jpg
p7074
aVtexture_16.jpg
p7075
aVtexture_19.jpg
p7076
aVtexture_2.jpg
p7077
aVtexture_20.jpg
p7078
aVtexture_21.jpg
p7079
aVtexture_22.jpg
p7080
aVtexture_24.jpg
p7081
aVtexture_26.jpg
p7082
aVtexture_28.jpg
p7083
aVtexture_29.jpg
p7084
aVtexture_3.jpg
p7085
aVtexture_31.jpg
p7086
aVtexture_34.jpg
p7087
aVtexture_35.jpg
p7088
aVtexture_36.jpg
p7089
aVtexture_37.jpg
p7090
aVtexture_4.jpg
p7091
aVtexture_40.jpg
p7092
aVtexture_42.jpg
p7093
aVtexture_44.jpg
p7094
aVtexture_45.jpg
p7095
aVtexture_47.jpg
p7096
aVtexture_48.jpg
p7097
aVtexture_5.jpg
p7098
aVtexture_50.jpg
p7099
aVtexture_51.jpg
p7100
aVtexture_52.jpg
p7101
aVtexture_53.jpg
p7102
aVtexture_54.jpg
p7103
aVtexture_56.jpg
p7104
aVtexture_58.jpg
p7105
aVtexture_6.jpg
p7106
aVtexture_60.jpg
p7107
aVtexture_61.jpg
p7108
aVtexture_63.jpg
p7109
aVtexture_64.jpg
p7110
aVtexture_66.jpg
p7111
aVtexture_67.jpg
p7112
aVtexture_68.jpg
p7113
aVtexture_69.jpg
p7114
aVtexture_70.jpg
p7115
aVtexture_72.jpg
p7116
aVtexture_74.jpg
p7117
aVtexture_76.jpg
p7118
aVtexture_77.jpg
p7119
aVtexture_79.jpg
p7120
aVtexture_8.jpg
p7121
aVtexture_80.jpg
p7122
aVtexture_82.jpg
p7123
aVtexture_83.jpg
p7124
aVtexture_85.jpg
p7125
aVtexture_86.jpg
p7126
aVtexture_88.jpg
p7127
aVtexture_90.jpg
p7128
aVtexture_92.jpg
p7129
aVtexture_93.jpg
p7130
aVtexture_95.jpg
p7131
aVtexture_96.jpg
p7132
aVtexture_98.jpg
p7133
aVtexture_99.jpg
p7134
aVtraffic_104.jpg
p7135
aVtraffic_106.jpg
p7136
aVtraffic_108.jpg
p7137
aVtraffic_111.jpg
p7138
aVtraffic_115.jpg
p7139
aVtraffic_117.jpg
p7140
aVtraffic_119.jpg
p7141
aVtraffic_127.jpg
p7142
aVtraffic_13.jpg
p7143
aVtraffic_130.jpg
p7144
aVtraffic_132.jpg
p7145
aVtraffic_133.jpg
p7146
aVtraffic_136.jpg
p7147
aVtraffic_146.jpg
p7148
aVtraffic_147.jpg
p7149
aVtraffic_18.jpg
p7150
aVtraffic_19.jpg
p7151
aVtraffic_20.jpg
p7152
aVtraffic_21.jpg
p7153
aVtraffic_3.jpg
p7154
aVtraffic_31.jpg
p7155
aVtraffic_34.jpg
p7156
aVtraffic_36.jpg
p7157
aVtraffic_37.jpg
p7158
aVtraffic_38.jpg
p7159
aVtraffic_47.jpg
p7160
aVtraffic_48.jpg
p7161
aVtraffic_50.jpg
p7162
aVtraffic_53.jpg
p7163
aVtraffic_60.jpg
p7164
aVtraffic_61.jpg
p7165
aVtraffic_64.jpg
p7166
aVtraffic_66.jpg
p7167
aVtraffic_69.jpg
p7168
aVtraffic_70.jpg
p7169
aVtraffic_77.jpg
p7170
aVtraffic_83.jpg
p7171
aVtraffic_88.jpg
p7172
aVtraffic_95.jpg
p7173
aVtraffic_98.jpg
p7174
aVtree+trunk_0.jpg
p7175
aVtree+trunk_10.jpg
p7176
aVtree+trunk_102.jpg
p7177
aVtree+trunk_104.jpg
p7178
aVtree+trunk_105.jpg
p7179
aVtree+trunk_106.jpg
p7180
aVtree+trunk_107.jpg
p7181
aVtree+trunk_108.jpg
p7182
aVtree+trunk_110.jpg
p7183
aVtree+trunk_112.jpg
p7184
aVtree+trunk_114.jpg
p7185
aVtree+trunk_117.jpg
p7186
aVtree+trunk_12.jpg
p7187
aVtree+trunk_121.jpg
p7188
aVtree+trunk_122.jpg
p7189
aVtree+trunk_124.jpg
p7190
aVtree+trunk_126.jpg
p7191
aVtree+trunk_128.jpg
p7192
aVtree+trunk_133.jpg
p7193
aVtree+trunk_134.jpg
p7194
aVtree+trunk_136.jpg
p7195
aVtree+trunk_137.jpg
p7196
aVtree+trunk_139.jpg
p7197
aVtree+trunk_14.jpg
p7198
aVtree+trunk_140.jpg
p7199
aVtree+trunk_142.jpg
p7200
aVtree+trunk_147.jpg
p7201
aVtree+trunk_16.jpg
p7202
aVtree+trunk_18.jpg
p7203
aVtree+trunk_19.jpg
p7204
aVtree+trunk_2.jpg
p7205
aVtree+trunk_22.jpg
p7206
aVtree+trunk_27.png
p7207
aVtree+trunk_28.jpg
p7208
aVtree+trunk_3.jpg
p7209
aVtree+trunk_30.jpg
p7210
aVtree+trunk_32.jpg
p7211
aVtree+trunk_35.jpg
p7212
aVtree+trunk_38.jpg
p7213
aVtree+trunk_42.jpg
p7214
aVtree+trunk_43.jpg
p7215
aVtree+trunk_44.jpg
p7216
aVtree+trunk_46.jpg
p7217
aVtree+trunk_5.jpg
p7218
aVtree+trunk_51.jpg
p7219
aVtree+trunk_53.jpg
p7220
aVtree+trunk_54.jpg
p7221
aVtree+trunk_57.jpg
p7222
aVtree+trunk_59.jpg
p7223
aVtree+trunk_6.jpg
p7224
aVtree+trunk_62.jpg
p7225
aVtree+trunk_64.jpg
p7226
aVtree+trunk_66.jpg
p7227
aVtree+trunk_67.jpg
p7228
aVtree+trunk_69.jpg
p7229
aVtree+trunk_70.jpg
p7230
aVtree+trunk_72.jpg
p7231
aVtree+trunk_75.jpg
p7232
aVtree+trunk_76.jpg
p7233
aVtree+trunk_78.jpeg
p7234
aVtree+trunk_82.jpg
p7235
aVtree+trunk_83.jpg
p7236
aVtree+trunk_85.png
p7237
aVtree+trunk_86.jpg
p7238
aVtree+trunk_88.jpg
p7239
aVtree+trunk_9.jpg
p7240
aVtree+trunk_90.jpg
p7241
aVtree+trunk_91.jpg
p7242
aVtree+trunk_94.jpg
p7243
aVtree+trunk_96.jpg
p7244
aVtree+trunk_99.jpg
p7245
aVturtles_0.jpg
p7246
aVturtles_101.jpg
p7247
aVturtles_104.jpg
p7248
aVturtles_105.jpg
p7249
aVturtles_106.jpg
p7250
aVturtles_107.jpg
p7251
aVturtles_108.jpg
p7252
aVturtles_11.jpg
p7253
aVturtles_115.jpg
p7254
aVturtles_117.jpg
p7255
aVturtles_12.jpg
p7256
aVturtles_121.jpg
p7257
aVturtles_122.jpg
p7258
aVturtles_126.png
p7259
aVturtles_128.jpg
p7260
aVturtles_130.jpg
p7261
aVturtles_131.jpg
p7262
aVturtles_133.jpg
p7263
aVturtles_134.jpg
p7264
aVturtles_136.jpg
p7265
aVturtles_137.jpg
p7266
aVturtles_138.jpg
p7267
aVturtles_14.jpg
p7268
aVturtles_140.png
p7269
aVturtles_142.jpg
p7270
aVturtles_146.png
p7271
aVturtles_147.jpg
p7272
aVturtles_149.jpg
p7273
aVturtles_18.jpg
p7274
aVturtles_19.jpg
p7275
aVturtles_2.jpg
p7276
aVturtles_21.jpg
p7277
aVturtles_24.jpg
p7278
aVturtles_25.jpg
p7279
aVturtles_28.jpg
p7280
aVturtles_3.jpg
p7281
aVturtles_30.jpg
p7282
aVturtles_34.jpg
p7283
aVturtles_35.jpg
p7284
aVturtles_38.jpg
p7285
aVturtles_40.jpg
p7286
aVturtles_41.jpg
p7287
aVturtles_43.jpg
p7288
aVturtles_44.jpg
p7289
aVturtles_46.jpg
p7290
aVturtles_54.jpg
p7291
aVturtles_56.jpg
p7292
aVturtles_57.jpg
p7293
aVturtles_58.jpg
p7294
aVturtles_60.jpg
p7295
aVturtles_64.jpg
p7296
aVturtles_66.jpg
p7297
aVturtles_70.jpg
p7298
aVturtles_74.jpg
p7299
aVturtles_75.jpg
p7300
aVturtles_78.jpg
p7301
aVturtles_8.jpg
p7302
aVturtles_80.jpg
p7303
aVturtles_82.jpg
p7304
aVturtles_83.jpg
p7305
aVturtles_85.jpg
p7306
aVturtles_88.jpg
p7307
aVturtles_89.jpg
p7308
aVturtles_9.jpg
p7309
aVturtles_90.jpg
p7310
aVturtles_92.jpg
p7311
aVturtles_98.jpg
p7312
aVturtles_99.jpg
p7313
aVtyres_100.png
p7314
aVtyres_102.jpeg
p7315
aVtyres_104.jpg
p7316
aVtyres_11.jpg
p7317
aVtyres_112.jpg
p7318
aVtyres_114.jpg
p7319
aVtyres_115.png
p7320
aVtyres_125.jpg
p7321
aVtyres_13.png
p7322
aVtyres_136.jpg
p7323
aVtyres_138.jpg
p7324
aVtyres_139.jpg
p7325
aVtyres_14.jpg
p7326
aVtyres_145.jpg
p7327
aVtyres_147.jpg
p7328
aVtyres_18.jpg
p7329
aVtyres_19.jpg
p7330
aVtyres_2.jpg
p7331
aVtyres_22.jpg
p7332
aVtyres_24.jpg
p7333
aVtyres_27.jpg
p7334
aVtyres_29.jpg
p7335
aVtyres_3.jpg
p7336
aVtyres_33.jpg
p7337
aVtyres_40.jpg
p7338
aVtyres_54.jpg
p7339
aVtyres_58.jpg
p7340
aVtyres_6.jpg
p7341
aVtyres_72.jpg
p7342
aVtyres_77.jpg
p7343
aVtyres_80.jpg
p7344
aVtyres_82.jpg
p7345
aVtyres_83.jpg
p7346
aVtyres_84.jpg
p7347
aVtyres_97.png
p7348
aVvan+gogh_0.jpg
p7349
aVvan+gogh_1.jpg
p7350
aVvan+gogh_101.jpg
p7351
aVvan+gogh_104.jpg
p7352
aVvan+gogh_105.jpg
p7353
aVvan+gogh_107.jpg
p7354
aVvan+gogh_109.jpg
p7355
aVvan+gogh_11.jpg
p7356
aVvan+gogh_110.jpg
p7357
aVvan+gogh_112.jpg
p7358
aVvan+gogh_113.jpg
p7359
aVvan+gogh_117.jpg
p7360
aVvan+gogh_118.jpg
p7361
aVvan+gogh_119.jpg
p7362
aVvan+gogh_12.jpg
p7363
aVvan+gogh_121.jpg
p7364
aVvan+gogh_124.jpg
p7365
aVvan+gogh_125.jpg
p7366
aVvan+gogh_126.jpg
p7367
aVvan+gogh_127.jpg
p7368
aVvan+gogh_128.jpg
p7369
aVvan+gogh_129.jpg
p7370
aVvan+gogh_130.jpg
p7371
aVvan+gogh_131.jpg
p7372
aVvan+gogh_132.jpg
p7373
aVvan+gogh_133.jpg
p7374
aVvan+gogh_134.jpg
p7375
aVvan+gogh_137.jpg
p7376
aVvan+gogh_139.jpg
p7377
aVvan+gogh_141.jpg
p7378
aVvan+gogh_144.jpg
p7379
aVvan+gogh_146.jpg
p7380
aVvan+gogh_148.jpg
p7381
aVvan+gogh_149.jpg
p7382
aVvan+gogh_15.jpg
p7383
aVvan+gogh_16.jpg
p7384
aVvan+gogh_17.jpg
p7385
aVvan+gogh_18.jpg
p7386
aVvan+gogh_2.jpg
p7387
aVvan+gogh_20.jpg
p7388
aVvan+gogh_21.jpg
p7389
aVvan+gogh_23.jpg
p7390
aVvan+gogh_25.jpg
p7391
aVvan+gogh_27.jpg
p7392
aVvan+gogh_28.jpg
p7393
aVvan+gogh_3.jpg
p7394
aVvan+gogh_30.jpg
p7395
aVvan+gogh_31.jpg
p7396
aVvan+gogh_32.jpg
p7397
aVvan+gogh_33.jpeg
p7398
aVvan+gogh_34.jpg
p7399
aVvan+gogh_35.jpg
p7400
aVvan+gogh_37.jpg
p7401
aVvan+gogh_38.jpg
p7402
aVvan+gogh_4.jpg
p7403
aVvan+gogh_40.jpg
p7404
aVvan+gogh_41.jpg
p7405
aVvan+gogh_43.jpg
p7406
aVvan+gogh_44.jpg
p7407
aVvan+gogh_45.jpg
p7408
aVvan+gogh_46.jpg
p7409
aVvan+gogh_48.jpg
p7410
aVvan+gogh_5.jpg
p7411
aVvan+gogh_50.jpg
p7412
aVvan+gogh_52.jpg
p7413
aVvan+gogh_57.jpg
p7414
aVvan+gogh_6.jpg
p7415
aVvan+gogh_61.jpg
p7416
aVvan+gogh_62.jpg
p7417
aVvan+gogh_64.jpg
p7418
aVvan+gogh_67.jpg
p7419
aVvan+gogh_68.jpg
p7420
aVvan+gogh_69.jpg
p7421
aVvan+gogh_7.jpg
p7422
aVvan+gogh_70.jpg
p7423
aVvan+gogh_71.jpg
p7424
aVvan+gogh_75.jpg
p7425
aVvan+gogh_76.jpg
p7426
aVvan+gogh_77.jpg
p7427
aVvan+gogh_78.jpg
p7428
aVvan+gogh_79.jpg
p7429
aVvan+gogh_80.jpg
p7430
aVvan+gogh_81.jpg
p7431
aVvan+gogh_82.jpg
p7432
aVvan+gogh_85.jpg
p7433
aVvan+gogh_91.jpg
p7434
aVvan+gogh_93.jpg
p7435
aVvan+gogh_95.jpg
p7436
aVvan+gogh_96.jpg
p7437
aVvan+gogh_97.jpg
p7438
aVvan+gogh_99.jpg
p7439
aVvillage_0.jpg
p7440
aVvillage_1.jpg
p7441
aVvillage_102.jpg
p7442
aVvillage_107.jpg
p7443
aVvillage_108.jpg
p7444
aVvillage_111.jpg
p7445
aVvillage_112.jpg
p7446
aVvillage_113.jpg
p7447
aVvillage_115.png
p7448
aVvillage_118.jpg
p7449
aVvillage_120.jpg
p7450
aVvillage_121.jpg
p7451
aVvillage_124.jpg
p7452
aVvillage_129.jpg
p7453
aVvillage_130.jpg
p7454
aVvillage_131.png
p7455
aVvillage_132.jpg
p7456
aVvillage_134.jpg
p7457
aVvillage_136.jpg
p7458
aVvillage_137.jpg
p7459
aVvillage_14.jpg
p7460
aVvillage_140.jpg
p7461
aVvillage_142.jpg
p7462
aVvillage_143.jpg
p7463
aVvillage_144.jpg
p7464
aVvillage_145.jpg
p7465
aVvillage_146.jpg
p7466
aVvillage_147.jpg
p7467
aVvillage_148.jpg
p7468
aVvillage_15.jpg
p7469
aVvillage_16.jpg
p7470
aVvillage_20.jpg
p7471
aVvillage_22.jpg
p7472
aVvillage_24.jpg
p7473
aVvillage_25.jpg
p7474
aVvillage_27.jpg
p7475
aVvillage_3.jpg
p7476
aVvillage_30.jpg
p7477
aVvillage_31.jpg
p7478
aVvillage_33.jpg
p7479
aVvillage_34.jpg
p7480
aVvillage_35.jpg
p7481
aVvillage_36.jpg
p7482
aVvillage_4.jpg
p7483
aVvillage_40.jpg
p7484
aVvillage_43.jpg
p7485
aVvillage_44.jpg
p7486
aVvillage_46.jpg
p7487
aVvillage_47.jpg
p7488
aVvillage_48.jpg
p7489
aVvillage_51.png
p7490
aVvillage_52.jpg
p7491
aVvillage_54.jpg
p7492
aVvillage_56.jpg
p7493
aVvillage_57.jpg
p7494
aVvillage_59.jpg
p7495
aVvillage_6.jpg
p7496
aVvillage_62.jpg
p7497
aVvillage_63.jpg
p7498
aVvillage_64.jpg
p7499
aVvillage_65.jpg
p7500
aVvillage_66.jpg
p7501
aVvillage_67.jpg
p7502
aVvillage_68.jpg
p7503
aVvillage_70.jpg
p7504
aVvillage_72.jpg
p7505
aVvillage_73.jpg
p7506
aVvillage_75.jpg
p7507
aVvillage_78.jpg
p7508
aVvillage_79.jpg
p7509
aVvillage_8.jpg
p7510
aVvillage_80.jpg
p7511
aVvillage_83.jpg
p7512
aVvillage_84.jpg
p7513
aVvillage_86.jpg
p7514
aVvillage_88.jpg
p7515
aVvillage_89.jpg
p7516
aVvillage_9.jpg
p7517
aVvillage_91.jpg
p7518
aVvillage_94.jpg
p7519
aVvillage_95.jpg
p7520
aVvillage_96.jpg
p7521
aVvillage_99.jpg
p7522
aVvintage+cars_1.jpg
p7523
aVvintage+cars_100.jpg
p7524
aVvintage+cars_105.jpg
p7525
aVvintage+cars_107.jpg
p7526
aVvintage+cars_113.jpg
p7527
aVvintage+cars_118.jpg
p7528
aVvintage+cars_123.jpg
p7529
aVvintage+cars_130.jpg
p7530
aVvintage+cars_132.jpg
p7531
aVvintage+cars_134.jpg
p7532
aVvintage+cars_136.jpg
p7533
aVvintage+cars_140.jpg
p7534
aVvintage+cars_142.jpg
p7535
aVvintage+cars_143.jpg
p7536
aVvintage+cars_145.jpg
p7537
aVvintage+cars_17.jpg
p7538
aVvintage+cars_18.jpg
p7539
aVvintage+cars_2.jpg
p7540
aVvintage+cars_22.jpg
p7541
aVvintage+cars_25.jpg
p7542
aVvintage+cars_27.jpg
p7543
aVvintage+cars_30.jpg
p7544
aVvintage+cars_32.jpg
p7545
aVvintage+cars_38.jpg
p7546
aVvintage+cars_4.jpg
p7547
aVvintage+cars_40.jpg
p7548
aVvintage+cars_47.jpg
p7549
aVvintage+cars_49.jpg
p7550
aVvintage+cars_50.jpg
p7551
aVvintage+cars_59.jpg
p7552
aVvintage+cars_60.jpg
p7553
aVvintage+cars_62.jpg
p7554
aVvintage+cars_66.jpg
p7555
aVvintage+cars_70.jpg
p7556
aVvintage+cars_76.jpg
p7557
aVvintage+cars_78.jpeg
p7558
aVvintage+cars_81.jpg
p7559
aVvintage+cars_88.jpg
p7560
aVvintage+cars_91.jpg
p7561
aVvintage+cars_92.jpg
p7562
aVvintage+cars_98.jpg
p7563
aVwall_1.jpg
p7564
aVwall_10.jpg
p7565
aVwall_100.jpg
p7566
aVwall_101.jpg
p7567
aVwall_102.jpg
p7568
aVwall_103.jpg
p7569
aVwall_106.jpg
p7570
aVwall_110.jpg
p7571
aVwall_111.jpg
p7572
aVwall_113.jpg
p7573
aVwall_114.jpg
p7574
aVwall_117.jpg
p7575
aVwall_118.jpg
p7576
aVwall_119.jpg
p7577
aVwall_120.jpg
p7578
aVwall_122.jpg
p7579
aVwall_124.jpg
p7580
aVwall_126.jpg
p7581
aVwall_132.png
p7582
aVwall_134.jpg
p7583
aVwall_138.jpg
p7584
aVwall_14.jpg
p7585
aVwall_142.jpg
p7586
aVwall_143.jpg
p7587
aVwall_146.jpg
p7588
aVwall_2.jpg
p7589
aVwall_20.jpg
p7590
aVwall_23.jpg
p7591
aVwall_24.jpg
p7592
aVwall_31.jpg
p7593
aVwall_36.jpg
p7594
aVwall_38.jpg
p7595
aVwall_39.jpg
p7596
aVwall_4.jpg
p7597
aVwall_40.jpg
p7598
aVwall_42.jpg
p7599
aVwall_46.jpg
p7600
aVwall_47.jpg
p7601
aVwall_49.jpg
p7602
aVwall_5.jpg
p7603
aVwall_54.jpg
p7604
aVwall_56.jpg
p7605
aVwall_58.jpg
p7606
aVwall_6.jpg
p7607
aVwall_60.png
p7608
aVwall_62.jpg
p7609
aVwall_65.jpg
p7610
aVwall_66.jpg
p7611
aVwall_68.jpg
p7612
aVwall_70.jpg
p7613
aVwall_71.jpg
p7614
aVwall_76.jpg
p7615
aVwall_78.jpg
p7616
aVwall_81.jpg
p7617
aVwall_82.jpg
p7618
aVwall_87.jpg
p7619
aVwall_88.jpg
p7620
aVwall_92.jpg
p7621
aVwall_94.jpg
p7622
aVwall_95.jpg
p7623
aVwall_98.jpg
p7624
aVwar_0.jpg
p7625
aVwar_10.jpg
p7626
aVwar_108.jpeg
p7627
aVwar_112.jpg
p7628
aVwar_114.jpg
p7629
aVwar_117.png
p7630
aVwar_120.jpg
p7631
aVwar_124.jpg
p7632
aVwar_13.jpg
p7633
aVwar_131.jpg
p7634
aVwar_133.jpg
p7635
aVwar_134.jpg
p7636
aVwar_136.jpg
p7637
aVwar_143.jpg
p7638
aVwar_144.jpg
p7639
aVwar_147.jpg
p7640
aVwar_149.jpg
p7641
aVwar_15.jpg
p7642
aVwar_16.jpg
p7643
aVwar_18.jpg
p7644
aVwar_2.jpg
p7645
aVwar_20.jpg
p7646
aVwar_21.jpg
p7647
aVwar_24.jpg
p7648
aVwar_3.jpg
p7649
aVwar_31.jpg
p7650
aVwar_32.jpg
p7651
aVwar_35.jpg
p7652
aVwar_38.jpg
p7653
aVwar_4.jpg
p7654
aVwar_42.jpg
p7655
aVwar_44.jpg
p7656
aVwar_45.jpg
p7657
aVwar_5.jpg
p7658
aVwar_50.jpg
p7659
aVwar_51.jpg
p7660
aVwar_52.jpg
p7661
aVwar_53.jpg
p7662
aVwar_54.jpg
p7663
aVwar_60.jpg
p7664
aVwar_64.jpg
p7665
aVwar_67.jpg
p7666
aVwar_70.jpg
p7667
aVwar_72.jpg
p7668
aVwar_77.png
p7669
aVwar_82.jpg
p7670
aVwar_90.jpeg
p7671
aVwar_92.jpg
p7672
aVwar_93.jpg
p7673
aVwar_95.jpg
p7674
aVwar_98.jpg
p7675
aVwar_99.jpg
p7676
aVwarehouse_1.jpg
p7677
aVwarehouse_100.jpg
p7678
aVwarehouse_103.jpg
p7679
aVwarehouse_104.jpg
p7680
aVwarehouse_105.jpg
p7681
aVwarehouse_108.jpg
p7682
aVwarehouse_112.jpg
p7683
aVwarehouse_113.jpg
p7684
aVwarehouse_116.jpg
p7685
aVwarehouse_118.jpg
p7686
aVwarehouse_119.jpg
p7687
aVwarehouse_12.jpg
p7688
aVwarehouse_120.jpg
p7689
aVwarehouse_121.jpg
p7690
aVwarehouse_124.jpg
p7691
aVwarehouse_126.jpg
p7692
aVwarehouse_128.jpg
p7693
aVwarehouse_129.jpg
p7694
aVwarehouse_131.jpg
p7695
aVwarehouse_132.jpg
p7696
aVwarehouse_136.jpg
p7697
aVwarehouse_138.jpg
p7698
aVwarehouse_140.jpg
p7699
aVwarehouse_147.jpg
p7700
aVwarehouse_148.jpg
p7701
aVwarehouse_19.jpg
p7702
aVwarehouse_20.jpg
p7703
aVwarehouse_23.jpg
p7704
aVwarehouse_24.jpg
p7705
aVwarehouse_25.jpg
p7706
aVwarehouse_26.jpg
p7707
aVwarehouse_3.jpg
p7708
aVwarehouse_30.jpg
p7709
aVwarehouse_33.jpg
p7710
aVwarehouse_35.png
p7711
aVwarehouse_36.jpg
p7712
aVwarehouse_38.png
p7713
aVwarehouse_39.jpg
p7714
aVwarehouse_4.jpg
p7715
aVwarehouse_40.jpg
p7716
aVwarehouse_41.jpg
p7717
aVwarehouse_44.jpg
p7718
aVwarehouse_46.jpg
p7719
aVwarehouse_49.jpg
p7720
aVwarehouse_52.jpg
p7721
aVwarehouse_54.png
p7722
aVwarehouse_55.jpg
p7723
aVwarehouse_56.jpg
p7724
aVwarehouse_57.jpg
p7725
aVwarehouse_58.jpg
p7726
aVwarehouse_6.jpg
p7727
aVwarehouse_60.jpg
p7728
aVwarehouse_70.jpg
p7729
aVwarehouse_72.jpg
p7730
aVwarehouse_78.jpg
p7731
aVwarehouse_8.jpg
p7732
aVwarehouse_81.jpg
p7733
aVwarehouse_90.jpg
p7734
aVwarehouse_94.jpg
p7735
aVwarehouse_99.jpg
p7736
aVwindow_0.jpg
p7737
aVwindow_1.jpg
p7738
aVwindow_10.jpg
p7739
aVwindow_101.jpg
p7740
aVwindow_102.jpg
p7741
aVwindow_103.png
p7742
aVwindow_104.jpg
p7743
aVwindow_105.jpg
p7744
aVwindow_106.jpg
p7745
aVwindow_107.jpg
p7746
aVwindow_108.jpg
p7747
aVwindow_11.jpg
p7748
aVwindow_112.jpg
p7749
aVwindow_114.jpg
p7750
aVwindow_116.jpg
p7751
aVwindow_117.jpg
p7752
aVwindow_118.jpg
p7753
aVwindow_12.jpg
p7754
aVwindow_122.jpg
p7755
aVwindow_123.jpg
p7756
aVwindow_127.jpg
p7757
aVwindow_128.jpg
p7758
aVwindow_129.jpg
p7759
aVwindow_131.jpg
p7760
aVwindow_132.jpg
p7761
aVwindow_140.jpg
p7762
aVwindow_146.jpg
p7763
aVwindow_147.jpg
p7764
aVwindow_148.jpg
p7765
aVwindow_149.jpg
p7766
aVwindow_15.jpg
p7767
aVwindow_16.jpg
p7768
aVwindow_17.jpg
p7769
aVwindow_18.jpg
p7770
aVwindow_19.jpg
p7771
aVwindow_20.jpg
p7772
aVwindow_21.png
p7773
aVwindow_22.jpg
p7774
aVwindow_23.jpg
p7775
aVwindow_24.jpg
p7776
aVwindow_26.jpg
p7777
aVwindow_29.jpg
p7778
aVwindow_31.jpeg
p7779
aVwindow_32.jpg
p7780
aVwindow_33.jpg
p7781
aVwindow_34.jpg
p7782
aVwindow_35.jpg
p7783
aVwindow_36.jpg
p7784
aVwindow_37.jpg
p7785
aVwindow_38.jpg
p7786
aVwindow_39.jpg
p7787
aVwindow_42.jpg
p7788
aVwindow_43.jpg
p7789
aVwindow_45.jpg
p7790
aVwindow_48.jpg
p7791
aVwindow_5.png
p7792
aVwindow_50.jpg
p7793
aVwindow_52.jpg
p7794
aVwindow_57.jpg
p7795
aVwindow_61.jpeg
p7796
aVwindow_64.jpg
p7797
aVwindow_67.jpg
p7798
aVwindow_69.jpg
p7799
aVwindow_70.jpg
p7800
aVwindow_71.jpg
p7801
aVwindow_72.jpeg
p7802
aVwindow_75.jpg
p7803
aVwindow_83.jpg
p7804
aVwindow_84.jpg
p7805
aVwindow_86.jpg
p7806
aVwindow_92.jpg
p7807
aVwindow_93.jpg
p7808
aVwindow_96.jpg
p7809
aVwindow_99.png
p7810
aVwoollens_0.jpg
p7811
aVwoollens_10.jpg
p7812
aVwoollens_106.jpg
p7813
aVwoollens_108.jpg
p7814
aVwoollens_112.jpg
p7815
aVwoollens_117.jpg
p7816
aVwoollens_12.jpg
p7817
aVwoollens_120.jpg
p7818
aVwoollens_121.jpeg
p7819
aVwoollens_123.jpg
p7820
aVwoollens_124.jpg
p7821
aVwoollens_126.jpg
p7822
aVwoollens_128.jpg
p7823
aVwoollens_136.jpg
p7824
aVwoollens_137.png
p7825
aVwoollens_138.jpg
p7826
aVwoollens_139.jpg
p7827
aVwoollens_140.jpg
p7828
aVwoollens_142.jpg
p7829
aVwoollens_146.jpg
p7830
aVwoollens_147.jpg
p7831
aVwoollens_19.jpg
p7832
aVwoollens_2.jpg
p7833
aVwoollens_22.jpg
p7834
aVwoollens_24.jpg
p7835
aVwoollens_25.jpg
p7836
aVwoollens_28.jpg
p7837
aVwoollens_3.jpg
p7838
aVwoollens_30.jpg
p7839
aVwoollens_37.jpg
p7840
aVwoollens_40.jpg
p7841
aVwoollens_42.jpg
p7842
aVwoollens_43.jpg
p7843
aVwoollens_5.jpg
p7844
aVwoollens_53.jpg
p7845
aVwoollens_54.jpg
p7846
aVwoollens_56.jpg
p7847
aVwoollens_57.jpg
p7848
aVwoollens_58.jpg
p7849
aVwoollens_64.jpg
p7850
aVwoollens_69.jpg
p7851
aVwoollens_72.jpg
p7852
aVwoollens_73.jpg
p7853
aVwoollens_74.jpg
p7854
aVwoollens_75.jpg
p7855
aVwoollens_76.jpg
p7856
aVwoollens_82.jpg
p7857
aVwoollens_85.jpg
p7858
aVwoollens_86.jpg
p7859
aVwoollens_92.jpg
p7860
aVwoollens_96.jpg
p7861
aVwozniak_105.jpg
p7862
aVwozniak_106.jpg
p7863
aVwozniak_11.jpg
p7864
aVwozniak_110.jpg
p7865
aVwozniak_114.jpeg
p7866
aVwozniak_12.jpg
p7867
aVwozniak_123.jpg
p7868
aVwozniak_124.jpg
p7869
aVwozniak_131.jpg
p7870
aVwozniak_136.jpg
p7871
aVwozniak_139.jpg
p7872
aVwozniak_14.jpg
p7873
aVwozniak_140.jpg
p7874
aVwozniak_142.jpg
p7875
aVwozniak_146.jpg
p7876
aVwozniak_147.jpg
p7877
aVwozniak_16.jpg
p7878
aVwozniak_2.jpg
p7879
aVwozniak_21.jpg
p7880
aVwozniak_22.jpg
p7881
aVwozniak_27.jpeg
p7882
aVwozniak_30.jpeg
p7883
aVwozniak_32.jpg
p7884
aVwozniak_38.jpg
p7885
aVwozniak_40.jpg
p7886
aVwozniak_46.jpg
p7887
aVwozniak_48.jpg
p7888
aVwozniak_50.jpg
p7889
aVwozniak_53.jpg
p7890
aVwozniak_57.jpg
p7891
aVwozniak_59.jpg
p7892
aVwozniak_6.jpg
p7893
aVwozniak_60.jpg
p7894
aVwozniak_64.jpg
p7895
aVwozniak_69.jpg
p7896
aVwozniak_70.jpg
p7897
aVwozniak_72.jpg
p7898
aVwozniak_75.jpg
p7899
aVwozniak_76.jpg
p7900
aVwozniak_78.jpg
p7901
aVwozniak_8.jpg
p7902
aVwozniak_82.jpg
p7903
aVwozniak_85.jpg
p7904
aVwozniak_86.jpg
p7905
aVwozniak_88.jpg
p7906
aVwozniak_89.jpg
p7907
aVwozniak_90.png
p7908
aVzebra_0.jpg
p7909
aVzebra_10.jpg
p7910
aVzebra_100.jpg
p7911
aVzebra_101.jpg
p7912
aVzebra_102.jpg
p7913
aVzebra_104.jpg
p7914
aVzebra_109.jpg
p7915
aVzebra_114.jpg
p7916
aVzebra_115.jpg
p7917
aVzebra_116.jpg
p7918
aVzebra_117.jpg
p7919
aVzebra_118.jpg
p7920
aVzebra_120.png
p7921
aVzebra_124.jpg
p7922
aVzebra_128.jpg
p7923
aVzebra_13.jpg
p7924
aVzebra_132.jpg
p7925
aVzebra_136.jpg
p7926
aVzebra_138.jpg
p7927
aVzebra_143.jpg
p7928
aVzebra_146.jpg
p7929
aVzebra_15.jpg
p7930
aVzebra_16.jpg
p7931
aVzebra_19.jpg
p7932
aVzebra_20.jpg
p7933
aVzebra_22.jpg
p7934
aVzebra_26.jpg
p7935
aVzebra_28.jpg
p7936
aVzebra_31.jpg
p7937
aVzebra_32.jpg
p7938
aVzebra_34.jpg
p7939
aVzebra_35.jpg
p7940
aVzebra_36.jpg
p7941
aVzebra_4.jpg
p7942
aVzebra_42.jpg
p7943
aVzebra_45.jpg
p7944
aVzebra_48.jpg
p7945
aVzebra_52.jpg
p7946
aVzebra_56.jpg
p7947
aVzebra_58.jpg
p7948
aVzebra_6.jpg
p7949
aVzebra_61.jpg
p7950
aVzebra_64.jpg
p7951
aVzebra_66.jpg
p7952
aVzebra_67.jpg
p7953
aVzebra_68.jpg
p7954
aVzebra_70.jpg
p7955
aVzebra_72.jpg
p7956
aVzebra_79.jpg
p7957
aVzebra_80.jpg
p7958
aVzebra_83.jpg
p7959
aVzebra_84.jpg
p7960
aVzebra_85.jpg
p7961
aVzebra_88.jpg
p7962
aVzebra_90.jpg
p7963
aVzebra_92.jpg
p7964
aVzebra_93.jpg
p7965
aVzebra_96.jpg
p7966
aVzebra_98.jpg
p7967
aVzebra_99.jpg
p7968
aVzoo_0.jpg
p7969
aVzoo_104.jpg
p7970
aVzoo_105.jpg
p7971
aVzoo_106.jpg
p7972
aVzoo_107.jpg
p7973
aVzoo_110.jpg
p7974
aVzoo_12.jpg
p7975
aVzoo_121.jpg
p7976
aVzoo_126.jpg
p7977
aVzoo_130.jpg
p7978
aVzoo_131.jpg
p7979
aVzoo_133.jpg
p7980
aVzoo_137.jpg
p7981
aVzoo_139.jpg
p7982
aVzoo_144.jpg
p7983
aVzoo_146.jpg
p7984
aVzoo_18.jpg
p7985
aVzoo_21.jpg
p7986
aVzoo_22.jpg
p7987
aVzoo_24.jpg
p7988
aVzoo_26.jpg
p7989
aVzoo_30.jpg
p7990
aVzoo_35.jpg
p7991
aVzoo_37.jpg
p7992
aVzoo_42.jpg
p7993
aVzoo_46.jpg
p7994
aVzoo_50.jpg
p7995
aVzoo_51.jpg
p7996
aVzoo_53.jpg
p7997
aVzoo_54.jpg
p7998
aVzoo_56.jpg
p7999
aVzoo_64.jpg
p8000
aVzoo_67.jpg
p8001
aVzoo_69.jpg
p8002
aVzoo_72.jpg
p8003
aVzoo_73.jpg
p8004
aVzoo_74.jpg
p8005
aVzoo_75.jpg
p8006
aVzoo_78.jpg
p8007
aVzoo_89.jpg
p8008
aVzoo_90.jpg
p8009
aVzoo_98.jpg
p8010
aVzoo_99.jpg
p8011
a.